   1               		.file	"ucos_ii.c"
   2               	__SREG__ = 0x3f
   3               	__SP_H__ = 0x3e
   4               	__SP_L__ = 0x3d
   5               	__CCP__  = 0x34
   6               	__tmp_reg__ = 0
   7               	__zero_reg__ = 1
   8               		.global __do_copy_data
   9               		.global __do_clear_bss
  17               	.Ltext0:
  18               	.global	OSIntEnter
  20               	OSIntEnter:
  21               	.LFB3:
  22               	.LM1:
  23               	/* prologue: function */
  24               	/* frame size = 0 */
  25               	.LM2:
  26 0000 8091 0000 		lds r24,OSRunning
  27 0004 8130      		cpi r24,lo8(1)
  28 0006 01F4      		brne .L3
  29               	.LM3:
  30 0008 8091 0000 		lds r24,OSIntNesting
  31 000c 8F3F      		cpi r24,lo8(-1)
  32 000e 01F0      		breq .L3
  33               	.LM4:
  34 0010 8F5F      		subi r24,lo8(-(1))
  35 0012 8093 0000 		sts OSIntNesting,r24
  36               	.L3:
  37 0016 0895      		ret
  38               	.LFE3:
  40               	.global	OSVersion
  42               	OSVersion:
  43               	.LFB7:
  44               	.LM5:
  45               	/* prologue: function */
  46               	/* frame size = 0 */
  47               	.LM6:
  48 0018 84E0      		ldi r24,lo8(260)
  49 001a 91E0      		ldi r25,hi8(260)
  50               	/* epilogue start */
  51 001c 0895      		ret
  52               	.LFE7:
  54               	.global	OS_EventTaskRdy
  56               	OS_EventTaskRdy:
  57               	.LFB8:
  58               	.LM7:
  59               	.LVL0:
  60 001e FF92      		push r15
  61 0020 0F93      		push r16
  62 0022 1F93      		push r17
  63 0024 CF93      		push r28
  64 0026 DF93      		push r29
  65               	/* prologue: function */
  66               	/* frame size = 0 */
  67 0028 EC01      		movw r28,r24
  68 002a 8B01      		movw r16,r22
  69 002c F42E      		mov r15,r20
  70               	.LM8:
  71 002e 3981      		ldd r19,Y+1
  72 0030 E32F      		mov r30,r19
  73 0032 F0E0      		ldi r31,lo8(0)
  74 0034 E050      		subi r30,lo8(-(OSUnMapTbl))
  75 0036 F040      		sbci r31,hi8(-(OSUnMapTbl))
  76 0038 2081      		ld r18,Z
  77               	.LVL1:
  78               	.LM9:
  79 003a 422F      		mov r20,r18
  80               	.LVL2:
  81 003c 50E0      		ldi r21,lo8(0)
  82 003e FA01      		movw r30,r20
  83 0040 E050      		subi r30,lo8(-(OSMapTbl))
  84 0042 F040      		sbci r31,hi8(-(OSMapTbl))
  85 0044 7081      		ld r23,Z
  86               	.LVL3:
  87               	.LM10:
  88 0046 DC01      		movw r26,r24
  89 0048 A40F      		add r26,r20
  90 004a B51F      		adc r27,r21
  91 004c 1696      		adiw r26,6
  92 004e 9C91      		ld r25,X
  93 0050 1697      		sbiw r26,6
  94 0052 E92F      		mov r30,r25
  95 0054 F0E0      		ldi r31,lo8(0)
  96 0056 E050      		subi r30,lo8(-(OSUnMapTbl))
  97 0058 F040      		sbci r31,hi8(-(OSUnMapTbl))
  98 005a 8081      		ld r24,Z
  99               	.LVL4:
 100               	.LM11:
 101 005c E82F      		mov r30,r24
 102 005e F0E0      		ldi r31,lo8(0)
 103               	.LVL5:
 104 0060 E050      		subi r30,lo8(-(OSMapTbl))
 105 0062 F040      		sbci r31,hi8(-(OSMapTbl))
 106               	.LVL6:
 107 0064 6081      		ld r22,Z
 108               	.LVL7:
 109               	.LM12:
 110 0066 220F      		lsl r18
 111 0068 220F      		lsl r18
 112 006a 220F      		lsl r18
 113               	.LVL8:
 114 006c 280F      		add r18,r24
 115               	.LM13:
 116 006e 862F      		mov r24,r22
 117 0070 8095      		com r24
 118 0072 8923      		and r24,r25
 119 0074 1696      		adiw r26,6
 120 0076 8C93      		st X,r24
 121               	.LM14:
 122 0078 8823      		tst r24
 123 007a 01F4      		brne .L7
 124               	.LM15:
 125 007c 872F      		mov r24,r23
 126 007e 8095      		com r24
 127 0080 3823      		and r19,r24
 128 0082 3983      		std Y+1,r19
 129               	.L7:
 130               	.LM16:
 131 0084 E22F      		mov r30,r18
 132               	.LVL9:
 133 0086 F0E0      		ldi r31,lo8(0)
 134               	.LVL10:
 135 0088 EE0F      		lsl r30
 136 008a FF1F      		rol r31
 137               	.LVL11:
 138 008c E050      		subi r30,lo8(-(OSTCBPrioTbl))
 139 008e F040      		sbci r31,hi8(-(OSTCBPrioTbl))
 140               	.LVL12:
 141 0090 0190      		ld __tmp_reg__,Z+
 142 0092 F081      		ld r31,Z
 143 0094 E02D      		mov r30,__tmp_reg__
 144               	.LVL13:
 145               	.LM17:
 146 0096 1486      		std Z+12,__zero_reg__
 147 0098 1386      		std Z+11,__zero_reg__
 148               	.LM18:
 149 009a 1782      		std Z+7,__zero_reg__
 150 009c 1682      		std Z+6,__zero_reg__
 151               	.LM19:
 152 009e 1187      		std Z+9,r17
 153 00a0 0087      		std Z+8,r16
 154               	.LM20:
 155 00a2 8F2D      		mov r24,r15
 156 00a4 8095      		com r24
 157 00a6 9585      		ldd r25,Z+13
 158 00a8 8923      		and r24,r25
 159 00aa 8587      		std Z+13,r24
 160               	.LM21:
 161 00ac 8823      		tst r24
 162 00ae 01F4      		brne .L8
 163               	.LM22:
 164 00b0 8091 0000 		lds r24,OSRdyGrp
 165 00b4 872B      		or r24,r23
 166 00b6 8093 0000 		sts OSRdyGrp,r24
 167               	.LM23:
 168 00ba FA01      		movw r30,r20
 169               	.LVL14:
 170 00bc E050      		subi r30,lo8(-(OSRdyTbl))
 171 00be F040      		sbci r31,hi8(-(OSRdyTbl))
 172 00c0 8081      		ld r24,Z
 173 00c2 682B      		or r22,r24
 174 00c4 6083      		st Z,r22
 175               	.LVL15:
 176               	.L8:
 177               	.LM24:
 178 00c6 822F      		mov r24,r18
 179               	.LVL16:
 180               	/* epilogue start */
 181 00c8 DF91      		pop r29
 182 00ca CF91      		pop r28
 183               	.LVL17:
 184 00cc 1F91      		pop r17
 185 00ce 0F91      		pop r16
 186               	.LVL18:
 187 00d0 FF90      		pop r15
 188               	.LVL19:
 189 00d2 0895      		ret
 190               	.LFE8:
 192               	.global	OS_EventTaskWait
 194               	OS_EventTaskWait:
 195               	.LFB9:
 196               	.LM25:
 197               	.LVL20:
 198 00d4 CF93      		push r28
 199 00d6 DF93      		push r29
 200               	/* prologue: function */
 201               	/* frame size = 0 */
 202 00d8 EC01      		movw r28,r24
 203               	.LM26:
 204 00da A091 0000 		lds r26,OSTCBCur
 205 00de B091 0000 		lds r27,(OSTCBCur)+1
 206 00e2 1796      		adiw r26,6+1
 207 00e4 9C93      		st X,r25
 208 00e6 8E93      		st -X,r24
 209 00e8 1697      		sbiw r26,6
 210               	.LM27:
 211 00ea 5096      		adiw r26,16
 212 00ec 8C91      		ld r24,X
 213 00ee 5097      		sbiw r26,16
 214               	.LVL21:
 215 00f0 282F      		mov r18,r24
 216 00f2 30E0      		ldi r19,lo8(0)
 217 00f4 5196      		adiw r26,17
 218 00f6 4C91      		ld r20,X
 219 00f8 5197      		sbiw r26,17
 220 00fa F901      		movw r30,r18
 221 00fc E050      		subi r30,lo8(-(OSRdyTbl))
 222 00fe F040      		sbci r31,hi8(-(OSRdyTbl))
 223 0100 842F      		mov r24,r20
 224 0102 8095      		com r24
 225 0104 9081      		ld r25,Z
 226 0106 8923      		and r24,r25
 227 0108 8083      		st Z,r24
 228               	.LM28:
 229 010a 8823      		tst r24
 230 010c 01F4      		brne .L11
 231               	.LM29:
 232 010e 5296      		adiw r26,18
 233 0110 9C91      		ld r25,X
 234 0112 5297      		sbiw r26,18
 235 0114 9095      		com r25
 236 0116 8091 0000 		lds r24,OSRdyGrp
 237 011a 8923      		and r24,r25
 238 011c 8093 0000 		sts OSRdyGrp,r24
 239               	.L11:
 240               	.LM30:
 241 0120 FE01      		movw r30,r28
 242 0122 E20F      		add r30,r18
 243 0124 F31F      		adc r31,r19
 244 0126 8681      		ldd r24,Z+6
 245 0128 842B      		or r24,r20
 246 012a 8683      		std Z+6,r24
 247               	.LM31:
 248 012c 8981      		ldd r24,Y+1
 249 012e 5296      		adiw r26,18
 250 0130 9C91      		ld r25,X
 251 0132 892B      		or r24,r25
 252 0134 8983      		std Y+1,r24
 253               	/* epilogue start */
 254               	.LM32:
 255 0136 DF91      		pop r29
 256 0138 CF91      		pop r28
 257               	.LVL22:
 258 013a 0895      		ret
 259               	.LFE9:
 261               	.global	OS_EventTO
 263               	OS_EventTO:
 264               	.LFB10:
 265               	.LM33:
 266               	.LVL23:
 267 013c CF93      		push r28
 268 013e DF93      		push r29
 269               	/* prologue: function */
 270               	/* frame size = 0 */
 271 0140 EC01      		movw r28,r24
 272               	.LM34:
 273 0142 A091 0000 		lds r26,OSTCBCur
 274 0146 B091 0000 		lds r27,(OSTCBCur)+1
 275               	.LM35:
 276 014a 5096      		adiw r26,16
 277 014c 8C91      		ld r24,X
 278 014e 5097      		sbiw r26,16
 279               	.LVL24:
 280 0150 FE01      		movw r30,r28
 281 0152 E80F      		add r30,r24
 282 0154 F11D      		adc r31,__zero_reg__
 283 0156 5196      		adiw r26,17
 284 0158 8C91      		ld r24,X
 285 015a 5197      		sbiw r26,17
 286 015c 8095      		com r24
 287 015e 9681      		ldd r25,Z+6
 288 0160 8923      		and r24,r25
 289 0162 8683      		std Z+6,r24
 290               	.LM36:
 291 0164 8823      		tst r24
 292 0166 01F4      		brne .L14
 293               	.LM37:
 294 0168 5296      		adiw r26,18
 295 016a 9C91      		ld r25,X
 296 016c 5297      		sbiw r26,18
 297 016e 9095      		com r25
 298 0170 8981      		ldd r24,Y+1
 299 0172 8923      		and r24,r25
 300 0174 8983      		std Y+1,r24
 301               	.L14:
 302               	.LM38:
 303 0176 1D96      		adiw r26,13
 304 0178 1C92      		st X,__zero_reg__
 305 017a 1D97      		sbiw r26,13
 306               	.LM39:
 307 017c 1796      		adiw r26,6+1
 308 017e 1C92      		st X,__zero_reg__
 309 0180 1E92      		st -X,__zero_reg__
 310 0182 1697      		sbiw r26,6
 311               	/* epilogue start */
 312               	.LM40:
 313 0184 DF91      		pop r29
 314 0186 CF91      		pop r28
 315               	.LVL25:
 316 0188 0895      		ret
 317               	.LFE10:
 319               	.global	OS_EventWaitListInit
 321               	OS_EventWaitListInit:
 322               	.LFB11:
 323               	.LM41:
 324               	.LVL26:
 325               	/* prologue: function */
 326               	/* frame size = 0 */
 327 018a FC01      		movw r30,r24
 328               	.LM42:
 329 018c 1182      		std Z+1,__zero_reg__
 330               	.LM43:
 331 018e 1682      		std Z+6,__zero_reg__
 332               	.LM44:
 333 0190 1782      		std Z+7,__zero_reg__
 334               	/* epilogue start */
 335               	.LM45:
 336 0192 0895      		ret
 337               	.LFE11:
 339               	.global	OSFlagAccept
 341               	OSFlagAccept:
 342               	.LFB20:
 343               	.LM46:
 344               	.LVL27:
 345               	/* prologue: function */
 346               	/* frame size = 0 */
 347 0194 FC01      		movw r30,r24
 348 0196 D901      		movw r26,r18
 349               	.LM47:
 350 0198 8081      		ld r24,Z
 351               	.LVL28:
 352 019a 8530      		cpi r24,lo8(5)
 353 019c 01F0      		breq .L19
 354               	.LVL29:
 355               	.LM48:
 356 019e 81E0      		ldi r24,lo8(1)
 357 01a0 8C93      		st X,r24
 358 01a2 80E0      		ldi r24,lo8(0)
 359               	.LVL30:
 360 01a4 0895      		ret
 361               	.LVL31:
 362               	.L19:
 363               	.LM49:
 364 01a6 47FD      		sbrc r20,7
 365 01a8 00C0      		rjmp .L21
 366 01aa 20E0      		ldi r18,lo8(0)
 367               	.LVL32:
 368 01ac 00C0      		rjmp .L22
 369               	.LVL33:
 370               	.L21:
 371               	.LM50:
 372 01ae 4F77      		andi r20,lo8(127)
 373               	.LVL34:
 374 01b0 21E0      		ldi r18,lo8(1)
 375               	.LVL35:
 376               	.L22:
 377               	.LM51:
 378 01b2 1C92      		st X,__zero_reg__
 379               	.LM52:
 380               	/* #APP */
 381               	 ;  106 "E:\ELE542-Lab\uCOSII\uC-OSII\SOFTWARE\uCOS-II\SOURCE/os_flag.c" 1
 382 01b4 0F93      		PUSH  R16
 383               	 ;  0 "" 2
 384               	 ;  106 "E:\ELE542-Lab\uCOSII\uC-OSII\SOFTWARE\uCOS-II\SOURCE/os_flag.c" 1
 385 01b6 0FB7      		IN    R16,0x3F
 386               	 ;  0 "" 2
 387               	 ;  106 "E:\ELE542-Lab\uCOSII\uC-OSII\SOFTWARE\uCOS-II\SOURCE/os_flag.c" 1
 388 01b8 0F93      		PUSH  R16
 389               	 ;  0 "" 2
 390               	 ;  106 "E:\ELE542-Lab\uCOSII\uC-OSII\SOFTWARE\uCOS-II\SOURCE/os_flag.c" 1
 391 01ba F894      		cli
 392               	 ;  0 "" 2
 393               	.LM53:
 394               	/* #NOAPP */
 395 01bc 4130      		cpi r20,lo8(1)
 396 01be 01F4      		brne .+2
 397 01c0 00C0      		rjmp .L25
 398 01c2 4130      		cpi r20,lo8(1)
 399 01c4 00F0      		brlo .L24
 400 01c6 4230      		cpi r20,lo8(2)
 401 01c8 01F0      		breq .L26
 402 01ca 4330      		cpi r20,lo8(3)
 403 01cc 01F0      		breq .+2
 404 01ce 00C0      		rjmp .L37
 405 01d0 00C0      		rjmp .L38
 406               	.L26:
 407               	.LM54:
 408 01d2 9381      		ldd r25,Z+3
 409 01d4 862F      		mov r24,r22
 410               	.LVL36:
 411 01d6 8923      		and r24,r25
 412               	.LM55:
 413 01d8 8617      		cp r24,r22
 414 01da 01F4      		brne .L28
 415               	.LM56:
 416 01dc 2130      		cpi r18,lo8(1)
 417 01de 01F4      		brne .L29
 418               	.LM57:
 419 01e0 6095      		com r22
 420               	.LVL37:
 421 01e2 9623      		and r25,r22
 422 01e4 9383      		std Z+3,r25
 423 01e6 00C0      		rjmp .L29
 424               	.L28:
 425               	.LM58:
 426 01e8 88E9      		ldi r24,lo8(-104)
 427               	.LVL38:
 428 01ea 8C93      		st X,r24
 429               	.LVL39:
 430               	.L29:
 431               	.LM59:
 432 01ec 8381      		ldd r24,Z+3
 433               	.LVL40:
 434               	.LM60:
 435               	/* #APP */
 436               	 ;  118 "E:\ELE542-Lab\uCOSII\uC-OSII\SOFTWARE\uCOS-II\SOURCE/os_flag.c" 1
 437 01ee 0F91      		POP  R16
 438               	 ;  0 "" 2
 439               	 ;  118 "E:\ELE542-Lab\uCOSII\uC-OSII\SOFTWARE\uCOS-II\SOURCE/os_flag.c" 1
 440 01f0 0FBF      		OUT  0x3F,R16
 441               	 ;  0 "" 2
 442               	 ;  118 "E:\ELE542-Lab\uCOSII\uC-OSII\SOFTWARE\uCOS-II\SOURCE/os_flag.c" 1
 443 01f2 0F91      		POP  R16
 444               	 ;  0 "" 2
 445               	/* #NOAPP */
 446 01f4 0895      		ret
 447               	.LVL41:
 448               	.L38:
 449               	.LM61:
 450 01f6 8381      		ldd r24,Z+3
 451 01f8 6823      		and r22,r24
 452               	.LVL42:
 453               	.LM62:
 454 01fa 01F0      		breq .L30
 455               	.LM63:
 456 01fc 2130      		cpi r18,lo8(1)
 457 01fe 01F4      		brne .L31
 458               	.LM64:
 459 0200 6095      		com r22
 460 0202 6823      		and r22,r24
 461 0204 6383      		std Z+3,r22
 462 0206 00C0      		rjmp .L31
 463               	.L30:
 464               	.LM65:
 465 0208 88E9      		ldi r24,lo8(-104)
 466 020a 8C93      		st X,r24
 467               	.L31:
 468               	.LM66:
 469 020c 8381      		ldd r24,Z+3
 470               	.LVL43:
 471               	.LM67:
 472               	/* #APP */
 473               	 ;  131 "E:\ELE542-Lab\uCOSII\uC-OSII\SOFTWARE\uCOS-II\SOURCE/os_flag.c" 1
 474 020e 0F91      		POP  R16
 475               	 ;  0 "" 2
 476               	 ;  131 "E:\ELE542-Lab\uCOSII\uC-OSII\SOFTWARE\uCOS-II\SOURCE/os_flag.c" 1
 477 0210 0FBF      		OUT  0x3F,R16
 478               	 ;  0 "" 2
 479               	 ;  131 "E:\ELE542-Lab\uCOSII\uC-OSII\SOFTWARE\uCOS-II\SOURCE/os_flag.c" 1
 480 0212 0F91      		POP  R16
 481               	 ;  0 "" 2
 482               	/* #NOAPP */
 483 0214 0895      		ret
 484               	.LVL44:
 485               	.L24:
 486               	.LM68:
 487 0216 9381      		ldd r25,Z+3
 488 0218 892F      		mov r24,r25
 489 021a 8095      		com r24
 490 021c 8623      		and r24,r22
 491               	.LM69:
 492 021e 8617      		cp r24,r22
 493 0220 01F4      		brne .L32
 494               	.LM70:
 495 0222 2130      		cpi r18,lo8(1)
 496 0224 01F4      		brne .L33
 497               	.LM71:
 498 0226 962B      		or r25,r22
 499 0228 9383      		std Z+3,r25
 500 022a 00C0      		rjmp .L33
 501               	.L32:
 502               	.LM72:
 503 022c 88E9      		ldi r24,lo8(-104)
 504 022e 8C93      		st X,r24
 505               	.L33:
 506               	.LM73:
 507 0230 8381      		ldd r24,Z+3
 508               	.LVL45:
 509               	.LM74:
 510               	/* #APP */
 511               	 ;  145 "E:\ELE542-Lab\uCOSII\uC-OSII\SOFTWARE\uCOS-II\SOURCE/os_flag.c" 1
 512 0232 0F91      		POP  R16
 513               	 ;  0 "" 2
 514               	 ;  145 "E:\ELE542-Lab\uCOSII\uC-OSII\SOFTWARE\uCOS-II\SOURCE/os_flag.c" 1
 515 0234 0FBF      		OUT  0x3F,R16
 516               	 ;  0 "" 2
 517               	 ;  145 "E:\ELE542-Lab\uCOSII\uC-OSII\SOFTWARE\uCOS-II\SOURCE/os_flag.c" 1
 518 0236 0F91      		POP  R16
 519               	 ;  0 "" 2
 520               	/* #NOAPP */
 521 0238 0895      		ret
 522               	.LVL46:
 523               	.L25:
 524               	.LM75:
 525 023a 9381      		ldd r25,Z+3
 526 023c 892F      		mov r24,r25
 527               	.LVL47:
 528 023e 8095      		com r24
 529 0240 8623      		and r24,r22
 530               	.LM76:
 531 0242 01F0      		breq .L34
 532               	.LM77:
 533 0244 2130      		cpi r18,lo8(1)
 534 0246 01F4      		brne .L35
 535               	.LM78:
 536 0248 892B      		or r24,r25
 537 024a 8383      		std Z+3,r24
 538 024c 00C0      		rjmp .L35
 539               	.L34:
 540               	.LM79:
 541 024e 88E9      		ldi r24,lo8(-104)
 542               	.LVL48:
 543 0250 8C93      		st X,r24
 544               	.LVL49:
 545               	.L35:
 546               	.LM80:
 547 0252 8381      		ldd r24,Z+3
 548               	.LVL50:
 549               	.LM81:
 550               	/* #APP */
 551               	 ;  158 "E:\ELE542-Lab\uCOSII\uC-OSII\SOFTWARE\uCOS-II\SOURCE/os_flag.c" 1
 552 0254 0F91      		POP  R16
 553               	 ;  0 "" 2
 554               	 ;  158 "E:\ELE542-Lab\uCOSII\uC-OSII\SOFTWARE\uCOS-II\SOURCE/os_flag.c" 1
 555 0256 0FBF      		OUT  0x3F,R16
 556               	 ;  0 "" 2
 557               	 ;  158 "E:\ELE542-Lab\uCOSII\uC-OSII\SOFTWARE\uCOS-II\SOURCE/os_flag.c" 1
 558 0258 0F91      		POP  R16
 559               	 ;  0 "" 2
 560               	/* #NOAPP */
 561 025a 0895      		ret
 562               	.LVL51:
 563               	.L37:
 564               	.LM82:
 565               	/* #APP */
 566               	 ;  163 "E:\ELE542-Lab\uCOSII\uC-OSII\SOFTWARE\uCOS-II\SOURCE/os_flag.c" 1
 567 025c 0F91      		POP  R16
 568               	 ;  0 "" 2
 569               	 ;  163 "E:\ELE542-Lab\uCOSII\uC-OSII\SOFTWARE\uCOS-II\SOURCE/os_flag.c" 1
 570 025e 0FBF      		OUT  0x3F,R16
 571               	 ;  0 "" 2
 572               	 ;  163 "E:\ELE542-Lab\uCOSII\uC-OSII\SOFTWARE\uCOS-II\SOURCE/os_flag.c" 1
 573 0260 0F91      		POP  R16
 574               	 ;  0 "" 2
 575               	.LM83:
 576               	/* #NOAPP */
 577 0262 87E9      		ldi r24,lo8(-105)
 578 0264 8C93      		st X,r24
 579 0266 80E0      		ldi r24,lo8(0)
 580               	.LVL52:
 581               	.LVL53:
 582               	.LM84:
 583 0268 0895      		ret
 584               	.LFE20:
 586               	.global	OSFlagCreate
 588               	OSFlagCreate:
 589               	.LFB21:
 590               	.LM85:
 591               	.LVL54:
 592               	/* prologue: function */
 593               	/* frame size = 0 */
 594 026a 282F      		mov r18,r24
 595 026c DB01      		movw r26,r22
 596               	.LM86:
 597 026e 8091 0000 		lds r24,OSIntNesting
 598               	.LVL55:
 599 0272 8823      		tst r24
 600 0274 01F0      		breq .L40
 601               	.LVL56:
 602               	.LM87:
 603 0276 8DE8      		ldi r24,lo8(-115)
 604 0278 8C93      		st X,r24
 605 027a E0E0      		ldi r30,lo8(0)
 606 027c F0E0      		ldi r31,hi8(0)
 607               	.LVL57:
 608 027e 00C0      		rjmp .L41
 609               	.LVL58:
 610               	.L40:
 611               	.LM88:
 612               	/* #APP */
 613               	 ;  205 "E:\ELE542-Lab\uCOSII\uC-OSII\SOFTWARE\uCOS-II\SOURCE/os_flag.c" 1
 614 0280 0F93      		PUSH  R16
 615               	 ;  0 "" 2
 616               	 ;  205 "E:\ELE542-Lab\uCOSII\uC-OSII\SOFTWARE\uCOS-II\SOURCE/os_flag.c" 1
 617 0282 0FB7      		IN    R16,0x3F
 618               	 ;  0 "" 2
 619               	 ;  205 "E:\ELE542-Lab\uCOSII\uC-OSII\SOFTWARE\uCOS-II\SOURCE/os_flag.c" 1
 620 0284 0F93      		PUSH  R16
 621               	 ;  0 "" 2
 622               	 ;  205 "E:\ELE542-Lab\uCOSII\uC-OSII\SOFTWARE\uCOS-II\SOURCE/os_flag.c" 1
 623 0286 F894      		cli
 624               	 ;  0 "" 2
 625               	.LM89:
 626               	/* #NOAPP */
 627 0288 E091 0000 		lds r30,OSFlagFreeList
 628 028c F091 0000 		lds r31,(OSFlagFreeList)+1
 629               	.LVL59:
 630               	.LM90:
 631 0290 3097      		sbiw r30,0
 632 0292 01F0      		breq .L42
 633               	.LM91:
 634 0294 8181      		ldd r24,Z+1
 635 0296 9281      		ldd r25,Z+2
 636 0298 9093 0000 		sts (OSFlagFreeList)+1,r25
 637 029c 8093 0000 		sts OSFlagFreeList,r24
 638               	.LM92:
 639 02a0 85E0      		ldi r24,lo8(5)
 640 02a2 8083      		st Z,r24
 641               	.LM93:
 642 02a4 2383      		std Z+3,r18
 643               	.LM94:
 644 02a6 1282      		std Z+2,__zero_reg__
 645 02a8 1182      		std Z+1,__zero_reg__
 646               	.LM95:
 647               	/* #APP */
 648               	 ;  216 "E:\ELE542-Lab\uCOSII\uC-OSII\SOFTWARE\uCOS-II\SOURCE/os_flag.c" 1
 649 02aa 0F91      		POP  R16
 650               	 ;  0 "" 2
 651               	 ;  216 "E:\ELE542-Lab\uCOSII\uC-OSII\SOFTWARE\uCOS-II\SOURCE/os_flag.c" 1
 652 02ac 0FBF      		OUT  0x3F,R16
 653               	 ;  0 "" 2
 654               	 ;  216 "E:\ELE542-Lab\uCOSII\uC-OSII\SOFTWARE\uCOS-II\SOURCE/os_flag.c" 1
 655 02ae 0F91      		POP  R16
 656               	 ;  0 "" 2
 657               	.LM96:
 658               	/* #NOAPP */
 659 02b0 1C92      		st X,__zero_reg__
 660 02b2 00C0      		rjmp .L41
 661               	.L42:
 662               	.LM97:
 663               	/* #APP */
 664               	 ;  219 "E:\ELE542-Lab\uCOSII\uC-OSII\SOFTWARE\uCOS-II\SOURCE/os_flag.c" 1
 665 02b4 0F91      		POP  R16
 666               	 ;  0 "" 2
 667               	 ;  219 "E:\ELE542-Lab\uCOSII\uC-OSII\SOFTWARE\uCOS-II\SOURCE/os_flag.c" 1
 668 02b6 0FBF      		OUT  0x3F,R16
 669               	 ;  0 "" 2
 670               	 ;  219 "E:\ELE542-Lab\uCOSII\uC-OSII\SOFTWARE\uCOS-II\SOURCE/os_flag.c" 1
 671 02b8 0F91      		POP  R16
 672               	 ;  0 "" 2
 673               	.LM98:
 674               	/* #NOAPP */
 675 02ba 8AE9      		ldi r24,lo8(-102)
 676 02bc 8C93      		st X,r24
 677               	.L41:
 678               	.LM99:
 679 02be CF01      		movw r24,r30
 680               	.LVL60:
 681               	/* epilogue start */
 682 02c0 0895      		ret
 683               	.LFE21:
 685               	.global	OSFlagPendGetFlagsRdy
 687               	OSFlagPendGetFlagsRdy:
 688               	.LFB23:
 689               	.LM100:
 690               	/* prologue: function */
 691               	/* frame size = 0 */
 692               	.LM101:
 693               	/* #APP */
 694               	 ;  673 "E:\ELE542-Lab\uCOSII\uC-OSII\SOFTWARE\uCOS-II\SOURCE/os_flag.c" 1
 695 02c2 0F93      		PUSH  R16
 696               	 ;  0 "" 2
 697               	 ;  673 "E:\ELE542-Lab\uCOSII\uC-OSII\SOFTWARE\uCOS-II\SOURCE/os_flag.c" 1
 698 02c4 0FB7      		IN    R16,0x3F
 699               	 ;  0 "" 2
 700               	 ;  673 "E:\ELE542-Lab\uCOSII\uC-OSII\SOFTWARE\uCOS-II\SOURCE/os_flag.c" 1
 701 02c6 0F93      		PUSH  R16
 702               	 ;  0 "" 2
 703               	 ;  673 "E:\ELE542-Lab\uCOSII\uC-OSII\SOFTWARE\uCOS-II\SOURCE/os_flag.c" 1
 704 02c8 F894      		cli
 705               	 ;  0 "" 2
 706               	.LM102:
 707               	 ;  675 "E:\ELE542-Lab\uCOSII\uC-OSII\SOFTWARE\uCOS-II\SOURCE/os_flag.c" 1
 708 02ca 0F93      		PUSH  R16
 709               	 ;  0 "" 2
 710               	 ;  675 "E:\ELE542-Lab\uCOSII\uC-OSII\SOFTWARE\uCOS-II\SOURCE/os_flag.c" 1
 711 02cc 0FB7      		IN    R16,0x3F
 712               	 ;  0 "" 2
 713               	 ;  675 "E:\ELE542-Lab\uCOSII\uC-OSII\SOFTWARE\uCOS-II\SOURCE/os_flag.c" 1
 714 02ce 0F93      		PUSH  R16
 715               	 ;  0 "" 2
 716               	 ;  675 "E:\ELE542-Lab\uCOSII\uC-OSII\SOFTWARE\uCOS-II\SOURCE/os_flag.c" 1
 717 02d0 F894      		cli
 718               	 ;  0 "" 2
 719               	/* #NOAPP */
 720 02d2 E091 0000 		lds r30,OSTCBCur
 721 02d6 F091 0000 		lds r31,(OSTCBCur)+1
 722               	.LM103:
 723 02da 8285      		ldd r24,Z+10
 724               	/* epilogue start */
 725 02dc 0895      		ret
 726               	.LFE23:
 728               	.global	OSFlagQuery
 730               	OSFlagQuery:
 731               	.LFB25:
 732               	.LM104:
 733               	.LVL61:
 734               	/* prologue: function */
 735               	/* frame size = 0 */
 736 02de FC01      		movw r30,r24
 737 02e0 DB01      		movw r26,r22
 738               	.LM105:
 739 02e2 8081      		ld r24,Z
 740               	.LVL62:
 741 02e4 8530      		cpi r24,lo8(5)
 742 02e6 01F0      		breq .L47
 743               	.LVL63:
 744               	.LM106:
 745 02e8 81E0      		ldi r24,lo8(1)
 746 02ea 8C93      		st X,r24
 747 02ec 80E0      		ldi r24,lo8(0)
 748               	.LVL64:
 749 02ee 0895      		ret
 750               	.LVL65:
 751               	.L47:
 752               	.LM107:
 753               	/* #APP */
 754               	 ;  860 "E:\ELE542-Lab\uCOSII\uC-OSII\SOFTWARE\uCOS-II\SOURCE/os_flag.c" 1
 755 02f0 0F93      		PUSH  R16
 756               	 ;  0 "" 2
 757               	 ;  860 "E:\ELE542-Lab\uCOSII\uC-OSII\SOFTWARE\uCOS-II\SOURCE/os_flag.c" 1
 758 02f2 0FB7      		IN    R16,0x3F
 759               	 ;  0 "" 2
 760               	 ;  860 "E:\ELE542-Lab\uCOSII\uC-OSII\SOFTWARE\uCOS-II\SOURCE/os_flag.c" 1
 761 02f4 0F93      		PUSH  R16
 762               	 ;  0 "" 2
 763               	 ;  860 "E:\ELE542-Lab\uCOSII\uC-OSII\SOFTWARE\uCOS-II\SOURCE/os_flag.c" 1
 764 02f6 F894      		cli
 765               	 ;  0 "" 2
 766               	.LM108:
 767               	/* #NOAPP */
 768 02f8 8381      		ldd r24,Z+3
 769               	.LVL66:
 770               	.LM109:
 771               	/* #APP */
 772               	 ;  862 "E:\ELE542-Lab\uCOSII\uC-OSII\SOFTWARE\uCOS-II\SOURCE/os_flag.c" 1
 773 02fa 0F91      		POP  R16
 774               	 ;  0 "" 2
 775               	 ;  862 "E:\ELE542-Lab\uCOSII\uC-OSII\SOFTWARE\uCOS-II\SOURCE/os_flag.c" 1
 776 02fc 0FBF      		OUT  0x3F,R16
 777               	 ;  0 "" 2
 778               	 ;  862 "E:\ELE542-Lab\uCOSII\uC-OSII\SOFTWARE\uCOS-II\SOURCE/os_flag.c" 1
 779 02fe 0F91      		POP  R16
 780               	 ;  0 "" 2
 781               	.LM110:
 782               	/* #NOAPP */
 783 0300 1C92      		st X,__zero_reg__
 784               	.LVL67:
 785               	.LM111:
 786 0302 0895      		ret
 787               	.LFE25:
 790               	OS_FlagTaskRdy:
 791               	.LFB28:
 792               	.LM112:
 793               	.LVL68:
 794 0304 CF93      		push r28
 795 0306 DF93      		push r29
 796               	/* prologue: function */
 797               	/* frame size = 0 */
 798 0308 EC01      		movw r28,r24
 799               	.LM113:
 800 030a AC81      		ldd r26,Y+4
 801 030c BD81      		ldd r27,Y+5
 802               	.LVL69:
 803               	.LM114:
 804 030e 1C96      		adiw r26,11+1
 805 0310 1C92      		st X,__zero_reg__
 806 0312 1E92      		st -X,__zero_reg__
 807 0314 1B97      		sbiw r26,11
 808               	.LM115:
 809 0316 1A96      		adiw r26,10
 810 0318 6C93      		st X,r22
 811 031a 1A97      		sbiw r26,10
 812               	.LM116:
 813 031c 1D96      		adiw r26,13
 814 031e 8C91      		ld r24,X
 815 0320 1D97      		sbiw r26,13
 816               	.LVL70:
 817 0322 8F7D      		andi r24,lo8(-33)
 818 0324 1D96      		adiw r26,13
 819 0326 8C93      		st X,r24
 820 0328 1D97      		sbiw r26,13
 821               	.LM117:
 822 032a 8823      		tst r24
 823 032c 01F0      		breq .L51
 824 032e 80E0      		ldi r24,lo8(0)
 825               	.LVL71:
 826 0330 00C0      		rjmp .L52
 827               	.LVL72:
 828               	.L51:
 829               	.LM118:
 830 0332 8091 0000 		lds r24,OSRdyGrp
 831 0336 5296      		adiw r26,18
 832 0338 9C91      		ld r25,X
 833 033a 5297      		sbiw r26,18
 834 033c 892B      		or r24,r25
 835 033e 8093 0000 		sts OSRdyGrp,r24
 836               	.LM119:
 837 0342 5096      		adiw r26,16
 838 0344 EC91      		ld r30,X
 839 0346 5097      		sbiw r26,16
 840 0348 F0E0      		ldi r31,lo8(0)
 841 034a E050      		subi r30,lo8(-(OSRdyTbl))
 842 034c F040      		sbci r31,hi8(-(OSRdyTbl))
 843 034e 8081      		ld r24,Z
 844 0350 5196      		adiw r26,17
 845 0352 9C91      		ld r25,X
 846 0354 892B      		or r24,r25
 847 0356 8083      		st Z,r24
 848 0358 81E0      		ldi r24,lo8(1)
 849               	.LVL73:
 850               	.L52:
 851               	.LBB48:
 852               	.LBB49:
 853               	.LM120:
 854 035a EA81      		ldd r30,Y+2
 855 035c FB81      		ldd r31,Y+3
 856               	.LVL74:
 857               	.LM121:
 858 035e A881      		ld r26,Y
 859 0360 B981      		ldd r27,Y+1
 860               	.LVL75:
 861               	.LM122:
 862 0362 3097      		sbiw r30,0
 863 0364 01F4      		brne .L53
 864               	.LM123:
 865 0366 EE81      		ldd r30,Y+6
 866 0368 FF81      		ldd r31,Y+7
 867               	.LVL76:
 868 036a B283      		std Z+2,r27
 869 036c A183      		std Z+1,r26
 870               	.LM124:
 871 036e 1097      		sbiw r26,0
 872 0370 01F0      		breq .L54
 873               	.LM125:
 874 0372 1396      		adiw r26,2+1
 875 0374 1C92      		st X,__zero_reg__
 876 0376 1E92      		st -X,__zero_reg__
 877 0378 1297      		sbiw r26,2
 878 037a 00C0      		rjmp .L54
 879               	.LVL77:
 880               	.L53:
 881               	.LM126:
 882 037c B183      		std Z+1,r27
 883 037e A083      		st Z,r26
 884               	.LM127:
 885 0380 1097      		sbiw r26,0
 886 0382 01F0      		breq .L54
 887               	.LM128:
 888 0384 1396      		adiw r26,2+1
 889 0386 FC93      		st X,r31
 890 0388 EE93      		st -X,r30
 891 038a 1297      		sbiw r26,2
 892               	.L54:
 893               	.LVL78:
 894               	/* epilogue start */
 895               	.LBE49:
 896               	.LBE48:
 897               	.LM129:
 898 038c DF91      		pop r29
 899 038e CF91      		pop r28
 900               	.LVL79:
 901 0390 0895      		ret
 902               	.LFE28:
 904               	.global	OS_FlagUnlink
 906               	OS_FlagUnlink:
 907               	.LFB29:
 908               	.LM130:
 909               	.LVL80:
 910 0392 CF93      		push r28
 911 0394 DF93      		push r29
 912               	/* prologue: function */
 913               	/* frame size = 0 */
 914 0396 FC01      		movw r30,r24
 915               	.LM131:
 916 0398 C281      		ldd r28,Z+2
 917 039a D381      		ldd r29,Z+3
 918               	.LVL81:
 919               	.LM132:
 920 039c A081      		ld r26,Z
 921 039e B181      		ldd r27,Z+1
 922               	.LVL82:
 923               	.LM133:
 924 03a0 2097      		sbiw r28,0
 925 03a2 01F4      		brne .L57
 926               	.LVL83:
 927               	.LM134:
 928 03a4 0680      		ldd __tmp_reg__,Z+6
 929 03a6 F781      		ldd r31,Z+7
 930 03a8 E02D      		mov r30,__tmp_reg__
 931               	.LVL84:
 932 03aa B283      		std Z+2,r27
 933 03ac A183      		std Z+1,r26
 934               	.LM135:
 935 03ae 1097      		sbiw r26,0
 936 03b0 01F0      		breq .L59
 937               	.LM136:
 938 03b2 1396      		adiw r26,2+1
 939 03b4 1C92      		st X,__zero_reg__
 940 03b6 1E92      		st -X,__zero_reg__
 941 03b8 1297      		sbiw r26,2
 942 03ba 00C0      		rjmp .L59
 943               	.LVL85:
 944               	.L57:
 945               	.LM137:
 946 03bc B983      		std Y+1,r27
 947 03be A883      		st Y,r26
 948               	.LM138:
 949 03c0 1097      		sbiw r26,0
 950 03c2 01F0      		breq .L59
 951               	.LM139:
 952 03c4 1396      		adiw r26,2+1
 953 03c6 DC93      		st X,r29
 954 03c8 CE93      		st -X,r28
 955 03ca 1297      		sbiw r26,2
 956               	.LVL86:
 957               	.L59:
 958               	/* epilogue start */
 959               	.LM140:
 960 03cc DF91      		pop r29
 961 03ce CF91      		pop r28
 962               	.LVL87:
 963 03d0 0895      		ret
 964               	.LFE29:
 966               	.global	OSMboxAccept
 968               	OSMboxAccept:
 969               	.LFB30:
 970               	.LM141:
 971               	.LVL88:
 972               	/* prologue: function */
 973               	/* frame size = 0 */
 974 03d2 FC01      		movw r30,r24
 975               	.LM142:
 976 03d4 8081      		ld r24,Z
 977               	.LVL89:
 978 03d6 8130      		cpi r24,lo8(1)
 979 03d8 01F0      		breq .L61
 980 03da 20E0      		ldi r18,lo8(0)
 981 03dc 30E0      		ldi r19,hi8(0)
 982               	.LVL90:
 983 03de 00C0      		rjmp .L62
 984               	.LVL91:
 985               	.L61:
 986               	.LM143:
 987               	/* #APP */
 988               	 ;  54 "E:\ELE542-Lab\uCOSII\uC-OSII\SOFTWARE\uCOS-II\SOURCE/os_mbox.c" 1
 989 03e0 0F93      		PUSH  R16
 990               	 ;  0 "" 2
 991               	 ;  54 "E:\ELE542-Lab\uCOSII\uC-OSII\SOFTWARE\uCOS-II\SOURCE/os_mbox.c" 1
 992 03e2 0FB7      		IN    R16,0x3F
 993               	 ;  0 "" 2
 994               	 ;  54 "E:\ELE542-Lab\uCOSII\uC-OSII\SOFTWARE\uCOS-II\SOURCE/os_mbox.c" 1
 995 03e4 0F93      		PUSH  R16
 996               	 ;  0 "" 2
 997               	 ;  54 "E:\ELE542-Lab\uCOSII\uC-OSII\SOFTWARE\uCOS-II\SOURCE/os_mbox.c" 1
 998 03e6 F894      		cli
 999               	 ;  0 "" 2
 1000               	.LM144:
 1001               	/* #NOAPP */
 1002 03e8 2481      		ldd r18,Z+4
 1003 03ea 3581      		ldd r19,Z+5
 1004               	.LVL92:
 1005               	.LM145:
 1006 03ec 1582      		std Z+5,__zero_reg__
 1007 03ee 1482      		std Z+4,__zero_reg__
 1008               	.LM146:
 1009               	/* #APP */
 1010               	 ;  57 "E:\ELE542-Lab\uCOSII\uC-OSII\SOFTWARE\uCOS-II\SOURCE/os_mbox.c" 1
 1011 03f0 0F91      		POP  R16
 1012               	 ;  0 "" 2
 1013               	 ;  57 "E:\ELE542-Lab\uCOSII\uC-OSII\SOFTWARE\uCOS-II\SOURCE/os_mbox.c" 1
 1014 03f2 0FBF      		OUT  0x3F,R16
 1015               	 ;  0 "" 2
 1016               	 ;  57 "E:\ELE542-Lab\uCOSII\uC-OSII\SOFTWARE\uCOS-II\SOURCE/os_mbox.c" 1
 1017 03f4 0F91      		POP  R16
 1018               	 ;  0 "" 2
 1019               	/* #NOAPP */
 1020               	.L62:
 1021               	.LM147:
 1022 03f6 C901      		movw r24,r18
 1023               	.LVL93:
 1024               	/* epilogue start */
 1025 03f8 0895      		ret
 1026               	.LFE30:
 1028               	.global	OSMboxCreate
 1030               	OSMboxCreate:
 1031               	.LFB31:
 1032               	.LM148:
 1033               	.LVL94:
 1034               	/* prologue: function */
 1035               	/* frame size = 0 */
 1036 03fa 9C01      		movw r18,r24
 1037               	.LM149:
 1038 03fc 8091 0000 		lds r24,OSIntNesting
 1039               	.LVL95:
 1040 0400 8823      		tst r24
 1041 0402 01F0      		breq .L65
 1042 0404 E0E0      		ldi r30,lo8(0)
 1043 0406 F0E0      		ldi r31,hi8(0)
 1044               	.LVL96:
 1045 0408 00C0      		rjmp .L66
 1046               	.LVL97:
 1047               	.L65:
 1048               	.LM150:
 1049               	/* #APP */
 1050               	 ;  89 "E:\ELE542-Lab\uCOSII\uC-OSII\SOFTWARE\uCOS-II\SOURCE/os_mbox.c" 1
 1051 040a 0F93      		PUSH  R16
 1052               	 ;  0 "" 2
 1053               	 ;  89 "E:\ELE542-Lab\uCOSII\uC-OSII\SOFTWARE\uCOS-II\SOURCE/os_mbox.c" 1
 1054 040c 0FB7      		IN    R16,0x3F
 1055               	 ;  0 "" 2
 1056               	 ;  89 "E:\ELE542-Lab\uCOSII\uC-OSII\SOFTWARE\uCOS-II\SOURCE/os_mbox.c" 1
 1057 040e 0F93      		PUSH  R16
 1058               	 ;  0 "" 2
 1059               	 ;  89 "E:\ELE542-Lab\uCOSII\uC-OSII\SOFTWARE\uCOS-II\SOURCE/os_mbox.c" 1
 1060 0410 F894      		cli
 1061               	 ;  0 "" 2
 1062               	.LM151:
 1063               	/* #NOAPP */
 1064 0412 E091 0000 		lds r30,OSEventFreeList
 1065 0416 F091 0000 		lds r31,(OSEventFreeList)+1
 1066               	.LVL98:
 1067               	.LM152:
 1068 041a 3097      		sbiw r30,0
 1069 041c 01F0      		breq .L67
 1070               	.LM153:
 1071 041e 8481      		ldd r24,Z+4
 1072 0420 9581      		ldd r25,Z+5
 1073 0422 9093 0000 		sts (OSEventFreeList)+1,r25
 1074 0426 8093 0000 		sts OSEventFreeList,r24
 1075               	.L67:
 1076               	.LM154:
 1077               	/* #APP */
 1078               	 ;  94 "E:\ELE542-Lab\uCOSII\uC-OSII\SOFTWARE\uCOS-II\SOURCE/os_mbox.c" 1
 1079 042a 0F91      		POP  R16
 1080               	 ;  0 "" 2
 1081               	 ;  94 "E:\ELE542-Lab\uCOSII\uC-OSII\SOFTWARE\uCOS-II\SOURCE/os_mbox.c" 1
 1082 042c 0FBF      		OUT  0x3F,R16
 1083               	 ;  0 "" 2
 1084               	 ;  94 "E:\ELE542-Lab\uCOSII\uC-OSII\SOFTWARE\uCOS-II\SOURCE/os_mbox.c" 1
 1085 042e 0F91      		POP  R16
 1086               	 ;  0 "" 2
 1087               	.LM155:
 1088               	/* #NOAPP */
 1089 0430 3097      		sbiw r30,0
 1090 0432 01F0      		breq .L66
 1091               	.LM156:
 1092 0434 81E0      		ldi r24,lo8(1)
 1093 0436 8083      		st Z,r24
 1094               	.LM157:
 1095 0438 1382      		std Z+3,__zero_reg__
 1096 043a 1282      		std Z+2,__zero_reg__
 1097               	.LM158:
 1098 043c 3583      		std Z+5,r19
 1099 043e 2483      		std Z+4,r18
 1100               	.LBB50:
 1101               	.LBB51:
 1102               	.LM159:
 1103 0440 1182      		std Z+1,__zero_reg__
 1104               	.LM160:
 1105 0442 1682      		std Z+6,__zero_reg__
 1106               	.LM161:
 1107 0444 1782      		std Z+7,__zero_reg__
 1108               	.L66:
 1109               	.LBE51:
 1110               	.LBE50:
 1111               	.LM162:
 1112 0446 CF01      		movw r24,r30
 1113               	.LVL99:
 1114               	/* epilogue start */
 1115 0448 0895      		ret
 1116               	.LFE31:
 1118               	.global	OSMboxQuery
 1120               	OSMboxQuery:
 1121               	.LFB35:
 1122               	.LM163:
 1123               	.LVL100:
 1124               	/* prologue: function */
 1125               	/* frame size = 0 */
 1126 044a FC01      		movw r30,r24
 1127 044c DB01      		movw r26,r22
 1128               	.LM164:
 1129 044e 8081      		ld r24,Z
 1130               	.LVL101:
 1131 0450 8130      		cpi r24,lo8(1)
 1132 0452 01F0      		breq .L70
 1133               	.LVL102:
 1134 0454 81E0      		ldi r24,lo8(1)
 1135 0456 0895      		ret
 1136               	.L70:
 1137               	.LM165:
 1138               	/* #APP */
 1139               	 ;  463 "E:\ELE542-Lab\uCOSII\uC-OSII\SOFTWARE\uCOS-II\SOURCE/os_mbox.c" 1
 1140 0458 0F93      		PUSH  R16
 1141               	 ;  0 "" 2
 1142               	 ;  463 "E:\ELE542-Lab\uCOSII\uC-OSII\SOFTWARE\uCOS-II\SOURCE/os_mbox.c" 1
 1143 045a 0FB7      		IN    R16,0x3F
 1144               	 ;  0 "" 2
 1145               	 ;  463 "E:\ELE542-Lab\uCOSII\uC-OSII\SOFTWARE\uCOS-II\SOURCE/os_mbox.c" 1
 1146 045c 0F93      		PUSH  R16
 1147               	 ;  0 "" 2
 1148               	 ;  463 "E:\ELE542-Lab\uCOSII\uC-OSII\SOFTWARE\uCOS-II\SOURCE/os_mbox.c" 1
 1149 045e F894      		cli
 1150               	 ;  0 "" 2
 1151               	.LM166:
 1152               	/* #NOAPP */
 1153 0460 8181      		ldd r24,Z+1
 1154 0462 1496      		adiw r26,4
 1155 0464 8C93      		st X,r24
 1156 0466 1497      		sbiw r26,4
 1157               	.LM167:
 1158 0468 8681      		ldd r24,Z+6
 1159 046a 1296      		adiw r26,2
 1160 046c 8C93      		st X,r24
 1161 046e 1297      		sbiw r26,2
 1162               	.LM168:
 1163 0470 8781      		ldd r24,Z+7
 1164 0472 1396      		adiw r26,3
 1165 0474 8C93      		st X,r24
 1166 0476 1397      		sbiw r26,3
 1167               	.LM169:
 1168 0478 8481      		ldd r24,Z+4
 1169 047a 9581      		ldd r25,Z+5
 1170 047c 8D93      		st X+,r24
 1171 047e 9C93      		st X,r25
 1172               	.LM170:
 1173               	/* #APP */
 1174               	 ;  500 "E:\ELE542-Lab\uCOSII\uC-OSII\SOFTWARE\uCOS-II\SOURCE/os_mbox.c" 1
 1175 0480 0F91      		POP  R16
 1176               	 ;  0 "" 2
 1177               	 ;  500 "E:\ELE542-Lab\uCOSII\uC-OSII\SOFTWARE\uCOS-II\SOURCE/os_mbox.c" 1
 1178 0482 0FBF      		OUT  0x3F,R16
 1179               	 ;  0 "" 2
 1180               	 ;  500 "E:\ELE542-Lab\uCOSII\uC-OSII\SOFTWARE\uCOS-II\SOURCE/os_mbox.c" 1
 1181 0484 0F91      		POP  R16
 1182               	 ;  0 "" 2
 1183               	/* #NOAPP */
 1184 0486 80E0      		ldi r24,lo8(0)
 1185               	.LM171:
 1186 0488 0895      		ret
 1187               	.LFE35:
 1189               	.global	OSMutexAccept
 1191               	OSMutexAccept:
 1192               	.LFB36:
 1193               	.LM172:
 1194               	.LVL103:
 1195 048a CF93      		push r28
 1196 048c DF93      		push r29
 1197               	/* prologue: function */
 1198               	/* frame size = 0 */
 1199 048e DC01      		movw r26,r24
 1200 0490 EB01      		movw r28,r22
 1201               	.LM173:
 1202 0492 8091 0000 		lds r24,OSIntNesting
 1203               	.LVL104:
 1204 0496 8823      		tst r24
 1205 0498 01F0      		breq .L74
 1206               	.LVL105:
 1207               	.LM174:
 1208 049a 82E0      		ldi r24,lo8(2)
 1209 049c 00C0      		rjmp .L80
 1210               	.L74:
 1211               	.LM175:
 1212 049e 8C91      		ld r24,X
 1213 04a0 8430      		cpi r24,lo8(4)
 1214 04a2 01F0      		breq .L76
 1215               	.LM176:
 1216 04a4 81E0      		ldi r24,lo8(1)
 1217               	.L80:
 1218 04a6 8883      		st Y,r24
 1219 04a8 00C0      		rjmp .L79
 1220               	.L76:
 1221               	.LM177:
 1222               	/* #APP */
 1223               	 ;  80 "E:\ELE542-Lab\uCOSII\uC-OSII\SOFTWARE\uCOS-II\SOURCE/os_mutex.c" 1
 1224 04aa 0F93      		PUSH  R16
 1225               	 ;  0 "" 2
 1226               	 ;  80 "E:\ELE542-Lab\uCOSII\uC-OSII\SOFTWARE\uCOS-II\SOURCE/os_mutex.c" 1
 1227 04ac 0FB7      		IN    R16,0x3F
 1228               	 ;  0 "" 2
 1229               	 ;  80 "E:\ELE542-Lab\uCOSII\uC-OSII\SOFTWARE\uCOS-II\SOURCE/os_mutex.c" 1
 1230 04ae 0F93      		PUSH  R16
 1231               	 ;  0 "" 2
 1232               	 ;  80 "E:\ELE542-Lab\uCOSII\uC-OSII\SOFTWARE\uCOS-II\SOURCE/os_mutex.c" 1
 1233 04b0 F894      		cli
 1234               	 ;  0 "" 2
 1235               	.LM178:
 1236               	/* #NOAPP */
 1237 04b2 1296      		adiw r26,2
 1238 04b4 2D91      		ld r18,X+
 1239 04b6 3C91      		ld r19,X
 1240 04b8 1397      		sbiw r26,2+1
 1241 04ba 2F3F      		cpi r18,lo8(-1)
 1242 04bc 01F4      		brne .L77
 1243               	.LM179:
 1244 04be E091 0000 		lds r30,OSTCBCur
 1245 04c2 F091 0000 		lds r31,(OSTCBCur)+1
 1246 04c6 8685      		ldd r24,Z+14
 1247 04c8 90E0      		ldi r25,lo8(0)
 1248 04ca 2070      		andi r18,lo8(-256)
 1249 04cc 822B      		or r24,r18
 1250 04ce 932B      		or r25,r19
 1251 04d0 1396      		adiw r26,2+1
 1252 04d2 9C93      		st X,r25
 1253 04d4 8E93      		st -X,r24
 1254 04d6 1297      		sbiw r26,2
 1255               	.LM180:
 1256 04d8 1596      		adiw r26,4+1
 1257 04da FC93      		st X,r31
 1258 04dc EE93      		st -X,r30
 1259 04de 1497      		sbiw r26,4
 1260               	.LM181:
 1261               	/* #APP */
 1262               	 ;  85 "E:\ELE542-Lab\uCOSII\uC-OSII\SOFTWARE\uCOS-II\SOURCE/os_mutex.c" 1
 1263 04e0 0F91      		POP  R16
 1264               	 ;  0 "" 2
 1265               	 ;  85 "E:\ELE542-Lab\uCOSII\uC-OSII\SOFTWARE\uCOS-II\SOURCE/os_mutex.c" 1
 1266 04e2 0FBF      		OUT  0x3F,R16
 1267               	 ;  0 "" 2
 1268               	 ;  85 "E:\ELE542-Lab\uCOSII\uC-OSII\SOFTWARE\uCOS-II\SOURCE/os_mutex.c" 1
 1269 04e4 0F91      		POP  R16
 1270               	 ;  0 "" 2
 1271               	.LM182:
 1272               	/* #NOAPP */
 1273 04e6 1882      		st Y,__zero_reg__
 1274 04e8 81E0      		ldi r24,lo8(1)
 1275 04ea 00C0      		rjmp .L75
 1276               	.L77:
 1277               	.LM183:
 1278               	/* #APP */
 1279               	 ;  89 "E:\ELE542-Lab\uCOSII\uC-OSII\SOFTWARE\uCOS-II\SOURCE/os_mutex.c" 1
 1280 04ec 0F91      		POP  R16
 1281               	 ;  0 "" 2
 1282               	 ;  89 "E:\ELE542-Lab\uCOSII\uC-OSII\SOFTWARE\uCOS-II\SOURCE/os_mutex.c" 1
 1283 04ee 0FBF      		OUT  0x3F,R16
 1284               	 ;  0 "" 2
 1285               	 ;  89 "E:\ELE542-Lab\uCOSII\uC-OSII\SOFTWARE\uCOS-II\SOURCE/os_mutex.c" 1
 1286 04f0 0F91      		POP  R16
 1287               	 ;  0 "" 2
 1288               	.LM184:
 1289               	/* #NOAPP */
 1290 04f2 1882      		st Y,__zero_reg__
 1291               	.L79:
 1292 04f4 80E0      		ldi r24,lo8(0)
 1293               	.L75:
 1294               	/* epilogue start */
 1295               	.LM185:
 1296 04f6 DF91      		pop r29
 1297 04f8 CF91      		pop r28
 1298               	.LVL106:
 1299 04fa 0895      		ret
 1300               	.LFE36:
 1302               	.global	OSMutexCreate
 1304               	OSMutexCreate:
 1305               	.LFB37:
 1306               	.LM186:
 1307               	.LVL107:
 1308 04fc CF93      		push r28
 1309 04fe DF93      		push r29
 1310               	/* prologue: function */
 1311               	/* frame size = 0 */
 1312 0500 282F      		mov r18,r24
 1313 0502 EB01      		movw r28,r22
 1314               	.LM187:
 1315 0504 8091 0000 		lds r24,OSIntNesting
 1316               	.LVL108:
 1317 0508 8823      		tst r24
 1318 050a 01F0      		breq .L82
 1319               	.LVL109:
 1320               	.LM188:
 1321 050c 8DE8      		ldi r24,lo8(-115)
 1322 050e 00C0      		rjmp .L87
 1323               	.L82:
 1324               	.LM189:
 1325               	/* #APP */
 1326               	 ;  147 "E:\ELE542-Lab\uCOSII\uC-OSII\SOFTWARE\uCOS-II\SOURCE/os_mutex.c" 1
 1327 0510 0F93      		PUSH  R16
 1328               	 ;  0 "" 2
 1329               	 ;  147 "E:\ELE542-Lab\uCOSII\uC-OSII\SOFTWARE\uCOS-II\SOURCE/os_mutex.c" 1
 1330 0512 0FB7      		IN    R16,0x3F
 1331               	 ;  0 "" 2
 1332               	 ;  147 "E:\ELE542-Lab\uCOSII\uC-OSII\SOFTWARE\uCOS-II\SOURCE/os_mutex.c" 1
 1333 0514 0F93      		PUSH  R16
 1334               	 ;  0 "" 2
 1335               	 ;  147 "E:\ELE542-Lab\uCOSII\uC-OSII\SOFTWARE\uCOS-II\SOURCE/os_mutex.c" 1
 1336 0516 F894      		cli
 1337               	 ;  0 "" 2
 1338               	.LM190:
 1339               	/* #NOAPP */
 1340 0518 E22F      		mov r30,r18
 1341 051a F0E0      		ldi r31,lo8(0)
 1342 051c EE0F      		lsl r30
 1343 051e FF1F      		rol r31
 1344 0520 E050      		subi r30,lo8(-(OSTCBPrioTbl))
 1345 0522 F040      		sbci r31,hi8(-(OSTCBPrioTbl))
 1346 0524 8081      		ld r24,Z
 1347 0526 9181      		ldd r25,Z+1
 1348 0528 892B      		or r24,r25
 1349 052a 01F0      		breq .L84
 1350               	.LM191:
 1351               	/* #APP */
 1352               	 ;  149 "E:\ELE542-Lab\uCOSII\uC-OSII\SOFTWARE\uCOS-II\SOURCE/os_mutex.c" 1
 1353 052c 0F91      		POP  R16
 1354               	 ;  0 "" 2
 1355               	 ;  149 "E:\ELE542-Lab\uCOSII\uC-OSII\SOFTWARE\uCOS-II\SOURCE/os_mutex.c" 1
 1356 052e 0FBF      		OUT  0x3F,R16
 1357               	 ;  0 "" 2
 1358               	 ;  149 "E:\ELE542-Lab\uCOSII\uC-OSII\SOFTWARE\uCOS-II\SOURCE/os_mutex.c" 1
 1359 0530 0F91      		POP  R16
 1360               	 ;  0 "" 2
 1361               	.LM192:
 1362               	/* #NOAPP */
 1363 0532 88E2      		ldi r24,lo8(40)
 1364               	.L87:
 1365 0534 8883      		st Y,r24
 1366 0536 A0E0      		ldi r26,lo8(0)
 1367 0538 B0E0      		ldi r27,hi8(0)
 1368               	.LVL110:
 1369 053a 00C0      		rjmp .L83
 1370               	.LVL111:
 1371               	.L84:
 1372               	.LM193:
 1373 053c 81E0      		ldi r24,lo8(1)
 1374 053e 90E0      		ldi r25,hi8(1)
 1375 0540 9183      		std Z+1,r25
 1376 0542 8083      		st Z,r24
 1377               	.LM194:
 1378 0544 A091 0000 		lds r26,OSEventFreeList
 1379 0548 B091 0000 		lds r27,(OSEventFreeList)+1
 1380               	.LVL112:
 1381               	.LM195:
 1382 054c 1097      		sbiw r26,0
 1383 054e 01F4      		brne .L85
 1384               	.LM196:
 1385 0550 1182      		std Z+1,__zero_reg__
 1386 0552 1082      		st Z,__zero_reg__
 1387               	.LM197:
 1388               	/* #APP */
 1389               	 ;  157 "E:\ELE542-Lab\uCOSII\uC-OSII\SOFTWARE\uCOS-II\SOURCE/os_mutex.c" 1
 1390 0554 0F91      		POP  R16
 1391               	 ;  0 "" 2
 1392               	 ;  157 "E:\ELE542-Lab\uCOSII\uC-OSII\SOFTWARE\uCOS-II\SOURCE/os_mutex.c" 1
 1393 0556 0FBF      		OUT  0x3F,R16
 1394               	 ;  0 "" 2
 1395               	 ;  157 "E:\ELE542-Lab\uCOSII\uC-OSII\SOFTWARE\uCOS-II\SOURCE/os_mutex.c" 1
 1396 0558 0F91      		POP  R16
 1397               	 ;  0 "" 2
 1398               	.LM198:
 1399               	/* #NOAPP */
 1400 055a 84E0      		ldi r24,lo8(4)
 1401 055c 8883      		st Y,r24
 1402 055e 00C0      		rjmp .L83
 1403               	.L85:
 1404               	.LM199:
 1405 0560 1496      		adiw r26,4
 1406 0562 8D91      		ld r24,X+
 1407 0564 9C91      		ld r25,X
 1408 0566 1597      		sbiw r26,4+1
 1409 0568 9093 0000 		sts (OSEventFreeList)+1,r25
 1410 056c 8093 0000 		sts OSEventFreeList,r24
 1411               	.LM200:
 1412               	/* #APP */
 1413               	 ;  162 "E:\ELE542-Lab\uCOSII\uC-OSII\SOFTWARE\uCOS-II\SOURCE/os_mutex.c" 1
 1414 0570 0F91      		POP  R16
 1415               	 ;  0 "" 2
 1416               	 ;  162 "E:\ELE542-Lab\uCOSII\uC-OSII\SOFTWARE\uCOS-II\SOURCE/os_mutex.c" 1
 1417 0572 0FBF      		OUT  0x3F,R16
 1418               	 ;  0 "" 2
 1419               	 ;  162 "E:\ELE542-Lab\uCOSII\uC-OSII\SOFTWARE\uCOS-II\SOURCE/os_mutex.c" 1
 1420 0574 0F91      		POP  R16
 1421               	 ;  0 "" 2
 1422               	.LM201:
 1423               	/* #NOAPP */
 1424 0576 84E0      		ldi r24,lo8(4)
 1425 0578 8C93      		st X,r24
 1426               	.LM202:
 1427 057a 922F      		mov r25,r18
 1428               	.LVL113:
 1429 057c 80E0      		ldi r24,lo8(0)
 1430               	.LVL114:
 1431 057e 8F6F      		ori r24,lo8(255)
 1432               	.LVL115:
 1433 0580 1396      		adiw r26,2+1
 1434 0582 9C93      		st X,r25
 1435 0584 8E93      		st -X,r24
 1436 0586 1297      		sbiw r26,2
 1437               	.LM203:
 1438 0588 1596      		adiw r26,4+1
 1439 058a 1C92      		st X,__zero_reg__
 1440 058c 1E92      		st -X,__zero_reg__
 1441 058e 1497      		sbiw r26,4
 1442               	.LBB52:
 1443               	.LBB53:
 1444               	.LM204:
 1445 0590 1196      		adiw r26,1
 1446 0592 1C92      		st X,__zero_reg__
 1447 0594 1197      		sbiw r26,1
 1448               	.LM205:
 1449 0596 1696      		adiw r26,6
 1450 0598 1C92      		st X,__zero_reg__
 1451 059a 1697      		sbiw r26,6
 1452               	.LM206:
 1453 059c 1796      		adiw r26,7
 1454 059e 1C92      		st X,__zero_reg__
 1455 05a0 1797      		sbiw r26,7
 1456               	.LBE53:
 1457               	.LBE52:
 1458               	.LM207:
 1459 05a2 1882      		st Y,__zero_reg__
 1460               	.LVL116:
 1461               	.L83:
 1462               	.LM208:
 1463 05a4 CD01      		movw r24,r26
 1464               	.LVL117:
 1465               	/* epilogue start */
 1466 05a6 DF91      		pop r29
 1467 05a8 CF91      		pop r28
 1468               	.LVL118:
 1469 05aa 0895      		ret
 1470               	.LFE37:
 1472               	.global	OSMutexQuery
 1474               	OSMutexQuery:
 1475               	.LFB40:
 1476               	.LM209:
 1477               	.LVL119:
 1478               	/* prologue: function */
 1479               	/* frame size = 0 */
 1480 05ac DC01      		movw r26,r24
 1481 05ae FB01      		movw r30,r22
 1482               	.LM210:
 1483 05b0 8091 0000 		lds r24,OSIntNesting
 1484               	.LVL120:
 1485 05b4 8823      		tst r24
 1486 05b6 01F0      		breq .L89
 1487               	.LVL121:
 1488 05b8 86E0      		ldi r24,lo8(6)
 1489 05ba 0895      		ret
 1490               	.L89:
 1491               	.LM211:
 1492 05bc 8C91      		ld r24,X
 1493 05be 8430      		cpi r24,lo8(4)
 1494 05c0 01F0      		breq .L91
 1495 05c2 81E0      		ldi r24,lo8(1)
 1496 05c4 0895      		ret
 1497               	.L91:
 1498               	.LM212:
 1499               	/* #APP */
 1500               	 ;  520 "E:\ELE542-Lab\uCOSII\uC-OSII\SOFTWARE\uCOS-II\SOURCE/os_mutex.c" 1
 1501 05c6 0F93      		PUSH  R16
 1502               	 ;  0 "" 2
 1503               	 ;  520 "E:\ELE542-Lab\uCOSII\uC-OSII\SOFTWARE\uCOS-II\SOURCE/os_mutex.c" 1
 1504 05c8 0FB7      		IN    R16,0x3F
 1505               	 ;  0 "" 2
 1506               	 ;  520 "E:\ELE542-Lab\uCOSII\uC-OSII\SOFTWARE\uCOS-II\SOURCE/os_mutex.c" 1
 1507 05ca 0F93      		PUSH  R16
 1508               	 ;  0 "" 2
 1509               	 ;  520 "E:\ELE542-Lab\uCOSII\uC-OSII\SOFTWARE\uCOS-II\SOURCE/os_mutex.c" 1
 1510 05cc F894      		cli
 1511               	 ;  0 "" 2
 1512               	.LM213:
 1513               	/* #NOAPP */
 1514 05ce 1296      		adiw r26,2
 1515 05d0 9C91      		ld r25,X
 1516 05d2 1297      		sbiw r26,2
 1517 05d4 1396      		adiw r26,3
 1518 05d6 8C91      		ld r24,X
 1519 05d8 1397      		sbiw r26,3
 1520 05da 8583      		std Z+5,r24
 1521               	.LM214:
 1522 05dc 9483      		std Z+4,r25
 1523               	.LM215:
 1524 05de 9F3F      		cpi r25,lo8(-1)
 1525 05e0 01F4      		brne .L92
 1526               	.LM216:
 1527 05e2 81E0      		ldi r24,lo8(1)
 1528 05e4 8383      		std Z+3,r24
 1529 05e6 00C0      		rjmp .L93
 1530               	.L92:
 1531               	.LM217:
 1532 05e8 1382      		std Z+3,__zero_reg__
 1533               	.L93:
 1534               	.LM218:
 1535 05ea 1196      		adiw r26,1
 1536 05ec 8C91      		ld r24,X
 1537 05ee 1197      		sbiw r26,1
 1538 05f0 8283      		std Z+2,r24
 1539               	.LM219:
 1540 05f2 1696      		adiw r26,6
 1541 05f4 8C91      		ld r24,X
 1542 05f6 1697      		sbiw r26,6
 1543 05f8 8083      		st Z,r24
 1544               	.LM220:
 1545 05fa 1796      		adiw r26,7
 1546 05fc 8C91      		ld r24,X
 1547 05fe 8183      		std Z+1,r24
 1548               	.LM221:
 1549               	/* #APP */
 1550               	 ;  562 "E:\ELE542-Lab\uCOSII\uC-OSII\SOFTWARE\uCOS-II\SOURCE/os_mutex.c" 1
 1551 0600 0F91      		POP  R16
 1552               	 ;  0 "" 2
 1553               	 ;  562 "E:\ELE542-Lab\uCOSII\uC-OSII\SOFTWARE\uCOS-II\SOURCE/os_mutex.c" 1
 1554 0602 0FBF      		OUT  0x3F,R16
 1555               	 ;  0 "" 2
 1556               	 ;  562 "E:\ELE542-Lab\uCOSII\uC-OSII\SOFTWARE\uCOS-II\SOURCE/os_mutex.c" 1
 1557 0604 0F91      		POP  R16
 1558               	 ;  0 "" 2
 1559               	/* #NOAPP */
 1560 0606 80E0      		ldi r24,lo8(0)
 1561               	.LM222:
 1562 0608 0895      		ret
 1563               	.LFE40:
 1565               	.global	OSQAccept
 1567               	OSQAccept:
 1568               	.LFB41:
 1569               	.LM223:
 1570               	.LVL122:
 1571 060a CF93      		push r28
 1572 060c DF93      		push r29
 1573               	/* prologue: function */
 1574               	/* frame size = 0 */
 1575 060e FC01      		movw r30,r24
 1576 0610 EB01      		movw r28,r22
 1577               	.LM224:
 1578 0612 8081      		ld r24,Z
 1579               	.LVL123:
 1580 0614 8230      		cpi r24,lo8(2)
 1581 0616 01F0      		breq .L96
 1582               	.LVL124:
 1583               	.LM225:
 1584 0618 81E0      		ldi r24,lo8(1)
 1585 061a 8883      		st Y,r24
 1586 061c 20E0      		ldi r18,lo8(0)
 1587 061e 30E0      		ldi r19,hi8(0)
 1588               	.LVL125:
 1589 0620 00C0      		rjmp .L97
 1590               	.LVL126:
 1591               	.L96:
 1592               	.LM226:
 1593               	/* #APP */
 1594               	 ;  71 "E:\ELE542-Lab\uCOSII\uC-OSII\SOFTWARE\uCOS-II\SOURCE/os_q.c" 1
 1595 0622 0F93      		PUSH  R16
 1596               	 ;  0 "" 2
 1597               	 ;  71 "E:\ELE542-Lab\uCOSII\uC-OSII\SOFTWARE\uCOS-II\SOURCE/os_q.c" 1
 1598 0624 0FB7      		IN    R16,0x3F
 1599               	 ;  0 "" 2
 1600               	 ;  71 "E:\ELE542-Lab\uCOSII\uC-OSII\SOFTWARE\uCOS-II\SOURCE/os_q.c" 1
 1601 0626 0F93      		PUSH  R16
 1602               	 ;  0 "" 2
 1603               	 ;  71 "E:\ELE542-Lab\uCOSII\uC-OSII\SOFTWARE\uCOS-II\SOURCE/os_q.c" 1
 1604 0628 F894      		cli
 1605               	 ;  0 "" 2
 1606               	.LM227:
 1607               	/* #NOAPP */
 1608 062a A481      		ldd r26,Z+4
 1609 062c B581      		ldd r27,Z+5
 1610               	.LVL127:
 1611               	.LM228:
 1612 062e 1C96      		adiw r26,12
 1613 0630 8D91      		ld r24,X+
 1614 0632 9C91      		ld r25,X
 1615 0634 1D97      		sbiw r26,12+1
 1616 0636 0097      		sbiw r24,0
 1617 0638 01F0      		breq .L98
 1618               	.LM229:
 1619 063a 1896      		adiw r26,8
 1620 063c ED91      		ld r30,X+
 1621 063e FC91      		ld r31,X
 1622 0640 1997      		sbiw r26,8+1
 1623               	.LVL128:
 1624 0642 2191      		ld r18,Z+
 1625 0644 3191      		ld r19,Z+
 1626               	.LVL129:
 1627 0646 1996      		adiw r26,8+1
 1628 0648 FC93      		st X,r31
 1629 064a EE93      		st -X,r30
 1630 064c 1897      		sbiw r26,8
 1631               	.LM230:
 1632 064e 0197      		sbiw r24,1
 1633 0650 1D96      		adiw r26,12+1
 1634 0652 9C93      		st X,r25
 1635 0654 8E93      		st -X,r24
 1636 0656 1C97      		sbiw r26,12
 1637               	.LM231:
 1638 0658 1496      		adiw r26,4
 1639 065a 8D91      		ld r24,X+
 1640 065c 9C91      		ld r25,X
 1641 065e 1597      		sbiw r26,4+1
 1642 0660 E817      		cp r30,r24
 1643 0662 F907      		cpc r31,r25
 1644 0664 01F4      		brne .L99
 1645               	.LM232:
 1646 0666 1296      		adiw r26,2
 1647 0668 8D91      		ld r24,X+
 1648 066a 9C91      		ld r25,X
 1649 066c 1397      		sbiw r26,2+1
 1650 066e 1996      		adiw r26,8+1
 1651 0670 9C93      		st X,r25
 1652 0672 8E93      		st -X,r24
 1653 0674 1897      		sbiw r26,8
 1654               	.L99:
 1655               	.LM233:
 1656 0676 1882      		st Y,__zero_reg__
 1657 0678 00C0      		rjmp .L100
 1658               	.LVL130:
 1659               	.L98:
 1660               	.LM234:
 1661 067a 8FE1      		ldi r24,lo8(31)
 1662 067c 8883      		st Y,r24
 1663 067e 20E0      		ldi r18,lo8(0)
 1664 0680 30E0      		ldi r19,hi8(0)
 1665               	.LVL131:
 1666               	.L100:
 1667               	.LM235:
 1668               	/* #APP */
 1669               	 ;  84 "E:\ELE542-Lab\uCOSII\uC-OSII\SOFTWARE\uCOS-II\SOURCE/os_q.c" 1
 1670 0682 0F91      		POP  R16
 1671               	 ;  0 "" 2
 1672               	 ;  84 "E:\ELE542-Lab\uCOSII\uC-OSII\SOFTWARE\uCOS-II\SOURCE/os_q.c" 1
 1673 0684 0FBF      		OUT  0x3F,R16
 1674               	 ;  0 "" 2
 1675               	 ;  84 "E:\ELE542-Lab\uCOSII\uC-OSII\SOFTWARE\uCOS-II\SOURCE/os_q.c" 1
 1676 0686 0F91      		POP  R16
 1677               	 ;  0 "" 2
 1678               	/* #NOAPP */
 1679               	.L97:
 1680               	.LM236:
 1681 0688 C901      		movw r24,r18
 1682               	.LVL132:
 1683               	/* epilogue start */
 1684 068a DF91      		pop r29
 1685 068c CF91      		pop r28
 1686               	.LVL133:
 1687 068e 0895      		ret
 1688               	.LFE41:
 1690               	.global	OSQCreate
 1692               	OSQCreate:
 1693               	.LFB42:
 1694               	.LM237:
 1695               	.LVL134:
 1696               	/* prologue: function */
 1697               	/* frame size = 0 */
 1698 0690 9C01      		movw r18,r24
 1699               	.LM238:
 1700 0692 8091 0000 		lds r24,OSIntNesting
 1701               	.LVL135:
 1702 0696 8823      		tst r24
 1703 0698 01F0      		breq .+2
 1704 069a 00C0      		rjmp .L108
 1705               	.L103:
 1706               	.LM239:
 1707               	/* #APP */
 1708               	 ;  120 "E:\ELE542-Lab\uCOSII\uC-OSII\SOFTWARE\uCOS-II\SOURCE/os_q.c" 1
 1709 069c 0F93      		PUSH  R16
 1710               	 ;  0 "" 2
 1711               	 ;  120 "E:\ELE542-Lab\uCOSII\uC-OSII\SOFTWARE\uCOS-II\SOURCE/os_q.c" 1
 1712 069e 0FB7      		IN    R16,0x3F
 1713               	 ;  0 "" 2
 1714               	 ;  120 "E:\ELE542-Lab\uCOSII\uC-OSII\SOFTWARE\uCOS-II\SOURCE/os_q.c" 1
 1715 06a0 0F93      		PUSH  R16
 1716               	 ;  0 "" 2
 1717               	 ;  120 "E:\ELE542-Lab\uCOSII\uC-OSII\SOFTWARE\uCOS-II\SOURCE/os_q.c" 1
 1718 06a2 F894      		cli
 1719               	 ;  0 "" 2
 1720               	.LM240:
 1721               	/* #NOAPP */
 1722 06a4 A091 0000 		lds r26,OSEventFreeList
 1723 06a8 B091 0000 		lds r27,(OSEventFreeList)+1
 1724               	.LVL136:
 1725               	.LM241:
 1726 06ac 1097      		sbiw r26,0
 1727 06ae 01F0      		breq .L105
 1728               	.LM242:
 1729 06b0 1496      		adiw r26,4
 1730 06b2 8D91      		ld r24,X+
 1731 06b4 9C91      		ld r25,X
 1732 06b6 1597      		sbiw r26,4+1
 1733 06b8 9093 0000 		sts (OSEventFreeList)+1,r25
 1734 06bc 8093 0000 		sts OSEventFreeList,r24
 1735               	.L105:
 1736               	.LM243:
 1737               	/* #APP */
 1738               	 ;  125 "E:\ELE542-Lab\uCOSII\uC-OSII\SOFTWARE\uCOS-II\SOURCE/os_q.c" 1
 1739 06c0 0F91      		POP  R16
 1740               	 ;  0 "" 2
 1741               	 ;  125 "E:\ELE542-Lab\uCOSII\uC-OSII\SOFTWARE\uCOS-II\SOURCE/os_q.c" 1
 1742 06c2 0FBF      		OUT  0x3F,R16
 1743               	 ;  0 "" 2
 1744               	 ;  125 "E:\ELE542-Lab\uCOSII\uC-OSII\SOFTWARE\uCOS-II\SOURCE/os_q.c" 1
 1745 06c4 0F91      		POP  R16
 1746               	 ;  0 "" 2
 1747               	.LM244:
 1748               	/* #NOAPP */
 1749 06c6 1097      		sbiw r26,0
 1750 06c8 01F4      		brne .+2
 1751 06ca 00C0      		rjmp .L104
 1752               	.LM245:
 1753               	/* #APP */
 1754               	 ;  127 "E:\ELE542-Lab\uCOSII\uC-OSII\SOFTWARE\uCOS-II\SOURCE/os_q.c" 1
 1755 06cc 0F93      		PUSH  R16
 1756               	 ;  0 "" 2
 1757               	 ;  127 "E:\ELE542-Lab\uCOSII\uC-OSII\SOFTWARE\uCOS-II\SOURCE/os_q.c" 1
 1758 06ce 0FB7      		IN    R16,0x3F
 1759               	 ;  0 "" 2
 1760               	 ;  127 "E:\ELE542-Lab\uCOSII\uC-OSII\SOFTWARE\uCOS-II\SOURCE/os_q.c" 1
 1761 06d0 0F93      		PUSH  R16
 1762               	 ;  0 "" 2
 1763               	 ;  127 "E:\ELE542-Lab\uCOSII\uC-OSII\SOFTWARE\uCOS-II\SOURCE/os_q.c" 1
 1764 06d2 F894      		cli
 1765               	 ;  0 "" 2
 1766               	.LM246:
 1767               	/* #NOAPP */
 1768 06d4 E091 0000 		lds r30,OSQFreeList
 1769 06d8 F091 0000 		lds r31,(OSQFreeList)+1
 1770               	.LVL137:
 1771               	.LM247:
 1772 06dc 3097      		sbiw r30,0
 1773 06de 01F0      		breq .L106
 1774               	.LM248:
 1775 06e0 8081      		ld r24,Z
 1776 06e2 9181      		ldd r25,Z+1
 1777 06e4 9093 0000 		sts (OSQFreeList)+1,r25
 1778 06e8 8093 0000 		sts OSQFreeList,r24
 1779               	.LM249:
 1780               	/* #APP */
 1781               	 ;  131 "E:\ELE542-Lab\uCOSII\uC-OSII\SOFTWARE\uCOS-II\SOURCE/os_q.c" 1
 1782 06ec 0F91      		POP  R16
 1783               	 ;  0 "" 2
 1784               	 ;  131 "E:\ELE542-Lab\uCOSII\uC-OSII\SOFTWARE\uCOS-II\SOURCE/os_q.c" 1
 1785 06ee 0FBF      		OUT  0x3F,R16
 1786               	 ;  0 "" 2
 1787               	 ;  131 "E:\ELE542-Lab\uCOSII\uC-OSII\SOFTWARE\uCOS-II\SOURCE/os_q.c" 1
 1788 06f0 0F91      		POP  R16
 1789               	 ;  0 "" 2
 1790               	.LM250:
 1791               	/* #NOAPP */
 1792 06f2 3383      		std Z+3,r19
 1793 06f4 2283      		std Z+2,r18
 1794               	.LM251:
 1795 06f6 CB01      		movw r24,r22
 1796 06f8 880F      		lsl r24
 1797 06fa 991F      		rol r25
 1798 06fc 820F      		add r24,r18
 1799 06fe 931F      		adc r25,r19
 1800 0700 9583      		std Z+5,r25
 1801 0702 8483      		std Z+4,r24
 1802               	.LM252:
 1803 0704 3783      		std Z+7,r19
 1804 0706 2683      		std Z+6,r18
 1805               	.LM253:
 1806 0708 3187      		std Z+9,r19
 1807 070a 2087      		std Z+8,r18
 1808               	.LM254:
 1809 070c 7387      		std Z+11,r23
 1810 070e 6287      		std Z+10,r22
 1811               	.LM255:
 1812 0710 1586      		std Z+13,__zero_reg__
 1813 0712 1486      		std Z+12,__zero_reg__
 1814               	.LM256:
 1815 0714 82E0      		ldi r24,lo8(2)
 1816 0716 8C93      		st X,r24
 1817               	.LM257:
 1818 0718 1396      		adiw r26,2+1
 1819 071a 1C92      		st X,__zero_reg__
 1820 071c 1E92      		st -X,__zero_reg__
 1821 071e 1297      		sbiw r26,2
 1822               	.LM258:
 1823 0720 1596      		adiw r26,4+1
 1824 0722 FC93      		st X,r31
 1825 0724 EE93      		st -X,r30
 1826 0726 1497      		sbiw r26,4
 1827               	.LBB54:
 1828               	.LBB55:
 1829               	.LM259:
 1830 0728 1196      		adiw r26,1
 1831 072a 1C92      		st X,__zero_reg__
 1832 072c 1197      		sbiw r26,1
 1833               	.LM260:
 1834 072e 1696      		adiw r26,6
 1835 0730 1C92      		st X,__zero_reg__
 1836 0732 1697      		sbiw r26,6
 1837               	.LM261:
 1838 0734 1796      		adiw r26,7
 1839 0736 1C92      		st X,__zero_reg__
 1840 0738 1797      		sbiw r26,7
 1841 073a 00C0      		rjmp .L104
 1842               	.L106:
 1843               	.LBE55:
 1844               	.LBE54:
 1845               	.LM262:
 1846 073c 8091 0000 		lds r24,OSEventFreeList
 1847 0740 9091 0000 		lds r25,(OSEventFreeList)+1
 1848 0744 1596      		adiw r26,4+1
 1849 0746 9C93      		st X,r25
 1850 0748 8E93      		st -X,r24
 1851 074a 1497      		sbiw r26,4
 1852               	.LM263:
 1853 074c B093 0000 		sts (OSEventFreeList)+1,r27
 1854 0750 A093 0000 		sts OSEventFreeList,r26
 1855               	.LM264:
 1856               	/* #APP */
 1857               	 ;  148 "E:\ELE542-Lab\uCOSII\uC-OSII\SOFTWARE\uCOS-II\SOURCE/os_q.c" 1
 1858 0754 0F91      		POP  R16
 1859               	 ;  0 "" 2
 1860               	 ;  148 "E:\ELE542-Lab\uCOSII\uC-OSII\SOFTWARE\uCOS-II\SOURCE/os_q.c" 1
 1861 0756 0FBF      		OUT  0x3F,R16
 1862               	 ;  0 "" 2
 1863               	 ;  148 "E:\ELE542-Lab\uCOSII\uC-OSII\SOFTWARE\uCOS-II\SOURCE/os_q.c" 1
 1864 0758 0F91      		POP  R16
 1865               	 ;  0 "" 2
 1866               	/* #NOAPP */
 1867               	.L108:
 1868 075a A0E0      		ldi r26,lo8(0)
 1869 075c B0E0      		ldi r27,hi8(0)
 1870               	.L104:
 1871               	.LM265:
 1872 075e CD01      		movw r24,r26
 1873               	.LVL138:
 1874               	/* epilogue start */
 1875 0760 0895      		ret
 1876               	.LFE42:
 1878               	.global	OSQFlush
 1880               	OSQFlush:
 1881               	.LFB43:
 1882               	.LM266:
 1883               	.LVL139:
 1884               	/* prologue: function */
 1885               	/* frame size = 0 */
 1886 0762 FC01      		movw r30,r24
 1887               	.LM267:
 1888               	/* #APP */
 1889               	 ;  314 "E:\ELE542-Lab\uCOSII\uC-OSII\SOFTWARE\uCOS-II\SOURCE/os_q.c" 1
 1890 0764 0F93      		PUSH  R16
 1891               	 ;  0 "" 2
 1892               	 ;  314 "E:\ELE542-Lab\uCOSII\uC-OSII\SOFTWARE\uCOS-II\SOURCE/os_q.c" 1
 1893 0766 0FB7      		IN    R16,0x3F
 1894               	 ;  0 "" 2
 1895               	 ;  314 "E:\ELE542-Lab\uCOSII\uC-OSII\SOFTWARE\uCOS-II\SOURCE/os_q.c" 1
 1896 0768 0F93      		PUSH  R16
 1897               	 ;  0 "" 2
 1898               	 ;  314 "E:\ELE542-Lab\uCOSII\uC-OSII\SOFTWARE\uCOS-II\SOURCE/os_q.c" 1
 1899 076a F894      		cli
 1900               	 ;  0 "" 2
 1901               	.LM268:
 1902               	/* #NOAPP */
 1903 076c 0480      		ldd __tmp_reg__,Z+4
 1904 076e F581      		ldd r31,Z+5
 1905 0770 E02D      		mov r30,__tmp_reg__
 1906               	.LVL140:
 1907               	.LM269:
 1908 0772 8281      		ldd r24,Z+2
 1909 0774 9381      		ldd r25,Z+3
 1910               	.LVL141:
 1911 0776 9783      		std Z+7,r25
 1912 0778 8683      		std Z+6,r24
 1913               	.LM270:
 1914 077a 9187      		std Z+9,r25
 1915 077c 8087      		std Z+8,r24
 1916               	.LM271:
 1917 077e 1586      		std Z+13,__zero_reg__
 1918 0780 1486      		std Z+12,__zero_reg__
 1919               	.LM272:
 1920               	/* #APP */
 1921               	 ;  319 "E:\ELE542-Lab\uCOSII\uC-OSII\SOFTWARE\uCOS-II\SOURCE/os_q.c" 1
 1922 0782 0F91      		POP  R16
 1923               	 ;  0 "" 2
 1924               	 ;  319 "E:\ELE542-Lab\uCOSII\uC-OSII\SOFTWARE\uCOS-II\SOURCE/os_q.c" 1
 1925 0784 0FBF      		OUT  0x3F,R16
 1926               	 ;  0 "" 2
 1927               	 ;  319 "E:\ELE542-Lab\uCOSII\uC-OSII\SOFTWARE\uCOS-II\SOURCE/os_q.c" 1
 1928 0786 0F91      		POP  R16
 1929               	 ;  0 "" 2
 1930               	.LM273:
 1931               	/* #NOAPP */
 1932 0788 80E0      		ldi r24,lo8(0)
 1933               	/* epilogue start */
 1934 078a 0895      		ret
 1935               	.LFE43:
 1937               	.global	OSQQuery
 1939               	OSQQuery:
 1940               	.LFB47:
 1941               	.LM274:
 1942               	.LVL142:
 1943 078c CF93      		push r28
 1944 078e DF93      		push r29
 1945               	/* prologue: function */
 1946               	/* frame size = 0 */
 1947 0790 FC01      		movw r30,r24
 1948 0792 DB01      		movw r26,r22
 1949               	.LM275:
 1950 0794 8081      		ld r24,Z
 1951               	.LVL143:
 1952 0796 8230      		cpi r24,lo8(2)
 1953 0798 01F0      		breq .L112
 1954               	.LVL144:
 1955 079a 81E0      		ldi r24,lo8(1)
 1956 079c 00C0      		rjmp .L113
 1957               	.L112:
 1958               	.LM276:
 1959               	/* #APP */
 1960               	 ;  669 "E:\ELE542-Lab\uCOSII\uC-OSII\SOFTWARE\uCOS-II\SOURCE/os_q.c" 1
 1961 079e 0F93      		PUSH  R16
 1962               	 ;  0 "" 2
 1963               	 ;  669 "E:\ELE542-Lab\uCOSII\uC-OSII\SOFTWARE\uCOS-II\SOURCE/os_q.c" 1
 1964 07a0 0FB7      		IN    R16,0x3F
 1965               	 ;  0 "" 2
 1966               	 ;  669 "E:\ELE542-Lab\uCOSII\uC-OSII\SOFTWARE\uCOS-II\SOURCE/os_q.c" 1
 1967 07a2 0F93      		PUSH  R16
 1968               	 ;  0 "" 2
 1969               	 ;  669 "E:\ELE542-Lab\uCOSII\uC-OSII\SOFTWARE\uCOS-II\SOURCE/os_q.c" 1
 1970 07a4 F894      		cli
 1971               	 ;  0 "" 2
 1972               	.LM277:
 1973               	/* #NOAPP */
 1974 07a6 8181      		ldd r24,Z+1
 1975 07a8 1896      		adiw r26,8
 1976 07aa 8C93      		st X,r24
 1977 07ac 1897      		sbiw r26,8
 1978               	.LM278:
 1979 07ae 8681      		ldd r24,Z+6
 1980 07b0 1696      		adiw r26,6
 1981 07b2 8C93      		st X,r24
 1982 07b4 1697      		sbiw r26,6
 1983               	.LM279:
 1984 07b6 8781      		ldd r24,Z+7
 1985 07b8 1796      		adiw r26,7
 1986 07ba 8C93      		st X,r24
 1987 07bc 1797      		sbiw r26,7
 1988               	.LM280:
 1989 07be C481      		ldd r28,Z+4
 1990 07c0 D581      		ldd r29,Z+5
 1991               	.LVL145:
 1992               	.LM281:
 1993 07c2 8C85      		ldd r24,Y+12
 1994 07c4 9D85      		ldd r25,Y+13
 1995 07c6 892B      		or r24,r25
 1996 07c8 01F0      		breq .L114
 1997               	.LM282:
 1998 07ca E885      		ldd r30,Y+8
 1999 07cc F985      		ldd r31,Y+9
 2000               	.LVL146:
 2001 07ce 8081      		ld r24,Z
 2002 07d0 9181      		ldd r25,Z+1
 2003 07d2 1196      		adiw r26,1
 2004 07d4 9C93      		st X,r25
 2005 07d6 8E93      		st -X,r24
 2006 07d8 00C0      		rjmp .L115
 2007               	.LVL147:
 2008               	.L114:
 2009               	.LM283:
 2010 07da 1196      		adiw r26,1
 2011 07dc 1C92      		st X,__zero_reg__
 2012 07de 1E92      		st -X,__zero_reg__
 2013               	.L115:
 2014               	.LM284:
 2015 07e0 8C85      		ldd r24,Y+12
 2016 07e2 9D85      		ldd r25,Y+13
 2017 07e4 1396      		adiw r26,2+1
 2018 07e6 9C93      		st X,r25
 2019 07e8 8E93      		st -X,r24
 2020 07ea 1297      		sbiw r26,2
 2021               	.LM285:
 2022 07ec 8A85      		ldd r24,Y+10
 2023 07ee 9B85      		ldd r25,Y+11
 2024 07f0 1596      		adiw r26,4+1
 2025 07f2 9C93      		st X,r25
 2026 07f4 8E93      		st -X,r24
 2027 07f6 1497      		sbiw r26,4
 2028               	.LM286:
 2029               	/* #APP */
 2030               	 ;  712 "E:\ELE542-Lab\uCOSII\uC-OSII\SOFTWARE\uCOS-II\SOURCE/os_q.c" 1
 2031 07f8 0F91      		POP  R16
 2032               	 ;  0 "" 2
 2033               	 ;  712 "E:\ELE542-Lab\uCOSII\uC-OSII\SOFTWARE\uCOS-II\SOURCE/os_q.c" 1
 2034 07fa 0FBF      		OUT  0x3F,R16
 2035               	 ;  0 "" 2
 2036               	 ;  712 "E:\ELE542-Lab\uCOSII\uC-OSII\SOFTWARE\uCOS-II\SOURCE/os_q.c" 1
 2037 07fc 0F91      		POP  R16
 2038               	 ;  0 "" 2
 2039               	/* #NOAPP */
 2040 07fe 80E0      		ldi r24,lo8(0)
 2041               	.L113:
 2042               	/* epilogue start */
 2043               	.LM287:
 2044 0800 DF91      		pop r29
 2045 0802 CF91      		pop r28
 2046               	.LVL148:
 2047 0804 0895      		ret
 2048               	.LFE47:
 2050               	.global	OSSemAccept
 2052               	OSSemAccept:
 2053               	.LFB49:
 2054               	.LM288:
 2055               	.LVL149:
 2056               	/* prologue: function */
 2057               	/* frame size = 0 */
 2058 0806 FC01      		movw r30,r24
 2059               	.LM289:
 2060 0808 8081      		ld r24,Z
 2061               	.LVL150:
 2062 080a 8330      		cpi r24,lo8(3)
 2063 080c 01F0      		breq .L118
 2064 080e 20E0      		ldi r18,lo8(0)
 2065 0810 30E0      		ldi r19,hi8(0)
 2066               	.LVL151:
 2067 0812 00C0      		rjmp .L119
 2068               	.LVL152:
 2069               	.L118:
 2070               	.LM290:
 2071               	/* #APP */
 2072               	 ;  55 "E:\ELE542-Lab\uCOSII\uC-OSII\SOFTWARE\uCOS-II\SOURCE/os_sem.c" 1
 2073 0814 0F93      		PUSH  R16
 2074               	 ;  0 "" 2
 2075               	 ;  55 "E:\ELE542-Lab\uCOSII\uC-OSII\SOFTWARE\uCOS-II\SOURCE/os_sem.c" 1
 2076 0816 0FB7      		IN    R16,0x3F
 2077               	 ;  0 "" 2
 2078               	 ;  55 "E:\ELE542-Lab\uCOSII\uC-OSII\SOFTWARE\uCOS-II\SOURCE/os_sem.c" 1
 2079 0818 0F93      		PUSH  R16
 2080               	 ;  0 "" 2
 2081               	 ;  55 "E:\ELE542-Lab\uCOSII\uC-OSII\SOFTWARE\uCOS-II\SOURCE/os_sem.c" 1
 2082 081a F894      		cli
 2083               	 ;  0 "" 2
 2084               	.LM291:
 2085               	/* #NOAPP */
 2086 081c 2281      		ldd r18,Z+2
 2087 081e 3381      		ldd r19,Z+3
 2088               	.LVL153:
 2089               	.LM292:
 2090 0820 2115      		cp r18,__zero_reg__
 2091 0822 3105      		cpc r19,__zero_reg__
 2092 0824 01F0      		breq .L120
 2093               	.LM293:
 2094 0826 2150      		subi r18,lo8(-(-1))
 2095 0828 3040      		sbci r19,hi8(-(-1))
 2096 082a 3383      		std Z+3,r19
 2097 082c 2283      		std Z+2,r18
 2098 082e 2F5F      		subi r18,lo8(-(1))
 2099 0830 3F4F      		sbci r19,hi8(-(1))
 2100               	.L120:
 2101               	.LM294:
 2102               	/* #APP */
 2103               	 ;  60 "E:\ELE542-Lab\uCOSII\uC-OSII\SOFTWARE\uCOS-II\SOURCE/os_sem.c" 1
 2104 0832 0F91      		POP  R16
 2105               	 ;  0 "" 2
 2106               	 ;  60 "E:\ELE542-Lab\uCOSII\uC-OSII\SOFTWARE\uCOS-II\SOURCE/os_sem.c" 1
 2107 0834 0FBF      		OUT  0x3F,R16
 2108               	 ;  0 "" 2
 2109               	 ;  60 "E:\ELE542-Lab\uCOSII\uC-OSII\SOFTWARE\uCOS-II\SOURCE/os_sem.c" 1
 2110 0836 0F91      		POP  R16
 2111               	 ;  0 "" 2
 2112               	/* #NOAPP */
 2113               	.L119:
 2114               	.LM295:
 2115 0838 C901      		movw r24,r18
 2116               	.LVL154:
 2117               	/* epilogue start */
 2118 083a 0895      		ret
 2119               	.LFE49:
 2121               	.global	OSSemCreate
 2123               	OSSemCreate:
 2124               	.LFB50:
 2125               	.LM296:
 2126               	.LVL155:
 2127               	/* prologue: function */
 2128               	/* frame size = 0 */
 2129 083c 9C01      		movw r18,r24
 2130               	.LM297:
 2131 083e 8091 0000 		lds r24,OSIntNesting
 2132               	.LVL156:
 2133 0842 8823      		tst r24
 2134 0844 01F0      		breq .L123
 2135 0846 E0E0      		ldi r30,lo8(0)
 2136 0848 F0E0      		ldi r31,hi8(0)
 2137               	.LVL157:
 2138 084a 00C0      		rjmp .L124
 2139               	.LVL158:
 2140               	.L123:
 2141               	.LM298:
 2142               	/* #APP */
 2143               	 ;  94 "E:\ELE542-Lab\uCOSII\uC-OSII\SOFTWARE\uCOS-II\SOURCE/os_sem.c" 1
 2144 084c 0F93      		PUSH  R16
 2145               	 ;  0 "" 2
 2146               	 ;  94 "E:\ELE542-Lab\uCOSII\uC-OSII\SOFTWARE\uCOS-II\SOURCE/os_sem.c" 1
 2147 084e 0FB7      		IN    R16,0x3F
 2148               	 ;  0 "" 2
 2149               	 ;  94 "E:\ELE542-Lab\uCOSII\uC-OSII\SOFTWARE\uCOS-II\SOURCE/os_sem.c" 1
 2150 0850 0F93      		PUSH  R16
 2151               	 ;  0 "" 2
 2152               	 ;  94 "E:\ELE542-Lab\uCOSII\uC-OSII\SOFTWARE\uCOS-II\SOURCE/os_sem.c" 1
 2153 0852 F894      		cli
 2154               	 ;  0 "" 2
 2155               	.LM299:
 2156               	/* #NOAPP */
 2157 0854 E091 0000 		lds r30,OSEventFreeList
 2158 0858 F091 0000 		lds r31,(OSEventFreeList)+1
 2159               	.LVL159:
 2160               	.LM300:
 2161 085c 3097      		sbiw r30,0
 2162 085e 01F0      		breq .L125
 2163               	.LM301:
 2164 0860 8481      		ldd r24,Z+4
 2165 0862 9581      		ldd r25,Z+5
 2166 0864 9093 0000 		sts (OSEventFreeList)+1,r25
 2167 0868 8093 0000 		sts OSEventFreeList,r24
 2168               	.L125:
 2169               	.LM302:
 2170               	/* #APP */
 2171               	 ;  99 "E:\ELE542-Lab\uCOSII\uC-OSII\SOFTWARE\uCOS-II\SOURCE/os_sem.c" 1
 2172 086c 0F91      		POP  R16
 2173               	 ;  0 "" 2
 2174               	 ;  99 "E:\ELE542-Lab\uCOSII\uC-OSII\SOFTWARE\uCOS-II\SOURCE/os_sem.c" 1
 2175 086e 0FBF      		OUT  0x3F,R16
 2176               	 ;  0 "" 2
 2177               	 ;  99 "E:\ELE542-Lab\uCOSII\uC-OSII\SOFTWARE\uCOS-II\SOURCE/os_sem.c" 1
 2178 0870 0F91      		POP  R16
 2179               	 ;  0 "" 2
 2180               	.LM303:
 2181               	/* #NOAPP */
 2182 0872 3097      		sbiw r30,0
 2183 0874 01F0      		breq .L124
 2184               	.LM304:
 2185 0876 83E0      		ldi r24,lo8(3)
 2186 0878 8083      		st Z,r24
 2187               	.LM305:
 2188 087a 3383      		std Z+3,r19
 2189 087c 2283      		std Z+2,r18
 2190               	.LM306:
 2191 087e 1582      		std Z+5,__zero_reg__
 2192 0880 1482      		std Z+4,__zero_reg__
 2193               	.LBB56:
 2194               	.LBB57:
 2195               	.LM307:
 2196 0882 1182      		std Z+1,__zero_reg__
 2197               	.LM308:
 2198 0884 1682      		std Z+6,__zero_reg__
 2199               	.LM309:
 2200 0886 1782      		std Z+7,__zero_reg__
 2201               	.L124:
 2202               	.LBE57:
 2203               	.LBE56:
 2204               	.LM310:
 2205 0888 CF01      		movw r24,r30
 2206               	.LVL160:
 2207               	/* epilogue start */
 2208 088a 0895      		ret
 2209               	.LFE50:
 2211               	.global	OSSemQuery
 2213               	OSSemQuery:
 2214               	.LFB53:
 2215               	.LM311:
 2216               	.LVL161:
 2217               	/* prologue: function */
 2218               	/* frame size = 0 */
 2219 088c FC01      		movw r30,r24
 2220 088e DB01      		movw r26,r22
 2221               	.LM312:
 2222 0890 8081      		ld r24,Z
 2223               	.LVL162:
 2224 0892 8330      		cpi r24,lo8(3)
 2225 0894 01F0      		breq .L128
 2226               	.LVL163:
 2227 0896 81E0      		ldi r24,lo8(1)
 2228 0898 0895      		ret
 2229               	.L128:
 2230               	.LM313:
 2231               	/* #APP */
 2232               	 ;  387 "E:\ELE542-Lab\uCOSII\uC-OSII\SOFTWARE\uCOS-II\SOURCE/os_sem.c" 1
 2233 089a 0F93      		PUSH  R16
 2234               	 ;  0 "" 2
 2235               	 ;  387 "E:\ELE542-Lab\uCOSII\uC-OSII\SOFTWARE\uCOS-II\SOURCE/os_sem.c" 1
 2236 089c 0FB7      		IN    R16,0x3F
 2237               	 ;  0 "" 2
 2238               	 ;  387 "E:\ELE542-Lab\uCOSII\uC-OSII\SOFTWARE\uCOS-II\SOURCE/os_sem.c" 1
 2239 089e 0F93      		PUSH  R16
 2240               	 ;  0 "" 2
 2241               	 ;  387 "E:\ELE542-Lab\uCOSII\uC-OSII\SOFTWARE\uCOS-II\SOURCE/os_sem.c" 1
 2242 08a0 F894      		cli
 2243               	 ;  0 "" 2
 2244               	.LM314:
 2245               	/* #NOAPP */
 2246 08a2 8181      		ldd r24,Z+1
 2247 08a4 1496      		adiw r26,4
 2248 08a6 8C93      		st X,r24
 2249 08a8 1497      		sbiw r26,4
 2250               	.LM315:
 2251 08aa 8681      		ldd r24,Z+6
 2252 08ac 1296      		adiw r26,2
 2253 08ae 8C93      		st X,r24
 2254 08b0 1297      		sbiw r26,2
 2255               	.LM316:
 2256 08b2 8781      		ldd r24,Z+7
 2257 08b4 1396      		adiw r26,3
 2258 08b6 8C93      		st X,r24
 2259 08b8 1397      		sbiw r26,3
 2260               	.LM317:
 2261 08ba 8281      		ldd r24,Z+2
 2262 08bc 9381      		ldd r25,Z+3
 2263 08be 8D93      		st X+,r24
 2264 08c0 9C93      		st X,r25
 2265               	.LM318:
 2266               	/* #APP */
 2267               	 ;  423 "E:\ELE542-Lab\uCOSII\uC-OSII\SOFTWARE\uCOS-II\SOURCE/os_sem.c" 1
 2268 08c2 0F91      		POP  R16
 2269               	 ;  0 "" 2
 2270               	 ;  423 "E:\ELE542-Lab\uCOSII\uC-OSII\SOFTWARE\uCOS-II\SOURCE/os_sem.c" 1
 2271 08c4 0FBF      		OUT  0x3F,R16
 2272               	 ;  0 "" 2
 2273               	 ;  423 "E:\ELE542-Lab\uCOSII\uC-OSII\SOFTWARE\uCOS-II\SOURCE/os_sem.c" 1
 2274 08c6 0F91      		POP  R16
 2275               	 ;  0 "" 2
 2276               	/* #NOAPP */
 2277 08c8 80E0      		ldi r24,lo8(0)
 2278               	.LM319:
 2279 08ca 0895      		ret
 2280               	.LFE53:
 2282               	.global	OSTaskQuery
 2284               	OSTaskQuery:
 2285               	.LFB55:
 2286               	.LM320:
 2287               	.LVL164:
 2288               	/* prologue: function */
 2289               	/* frame size = 0 */
 2290               	.LM321:
 2291               	/* #APP */
 2292               	 ;  895 "E:\ELE542-Lab\uCOSII\uC-OSII\SOFTWARE\uCOS-II\SOURCE/os_task.c" 1
 2293 08cc 0F93      		PUSH  R16
 2294               	 ;  0 "" 2
 2295               	 ;  895 "E:\ELE542-Lab\uCOSII\uC-OSII\SOFTWARE\uCOS-II\SOURCE/os_task.c" 1
 2296 08ce 0FB7      		IN    R16,0x3F
 2297               	 ;  0 "" 2
 2298               	 ;  895 "E:\ELE542-Lab\uCOSII\uC-OSII\SOFTWARE\uCOS-II\SOURCE/os_task.c" 1
 2299 08d0 0F93      		PUSH  R16
 2300               	 ;  0 "" 2
 2301               	 ;  895 "E:\ELE542-Lab\uCOSII\uC-OSII\SOFTWARE\uCOS-II\SOURCE/os_task.c" 1
 2302 08d2 F894      		cli
 2303               	 ;  0 "" 2
 2304               	.LM322:
 2305               	/* #NOAPP */
 2306 08d4 8F3F      		cpi r24,lo8(-1)
 2307 08d6 01F4      		brne .L132
 2308               	.LM323:
 2309 08d8 E091 0000 		lds r30,OSTCBCur
 2310 08dc F091 0000 		lds r31,(OSTCBCur)+1
 2311 08e0 8685      		ldd r24,Z+14
 2312               	.LVL165:
 2313               	.L132:
 2314               	.LM324:
 2315 08e2 E82F      		mov r30,r24
 2316 08e4 F0E0      		ldi r31,lo8(0)
 2317               	.LVL166:
 2318 08e6 EE0F      		lsl r30
 2319 08e8 FF1F      		rol r31
 2320               	.LVL167:
 2321 08ea E050      		subi r30,lo8(-(OSTCBPrioTbl))
 2322 08ec F040      		sbci r31,hi8(-(OSTCBPrioTbl))
 2323               	.LVL168:
 2324 08ee 0190      		ld __tmp_reg__,Z+
 2325 08f0 F081      		ld r31,Z
 2326 08f2 E02D      		mov r30,__tmp_reg__
 2327               	.LVL169:
 2328               	.LM325:
 2329 08f4 3097      		sbiw r30,0
 2330 08f6 01F4      		brne .L133
 2331               	.LM326:
 2332               	/* #APP */
 2333               	 ;  901 "E:\ELE542-Lab\uCOSII\uC-OSII\SOFTWARE\uCOS-II\SOURCE/os_task.c" 1
 2334 08f8 0F91      		POP  R16
 2335               	 ;  0 "" 2
 2336               	 ;  901 "E:\ELE542-Lab\uCOSII\uC-OSII\SOFTWARE\uCOS-II\SOURCE/os_task.c" 1
 2337 08fa 0FBF      		OUT  0x3F,R16
 2338               	 ;  0 "" 2
 2339               	 ;  901 "E:\ELE542-Lab\uCOSII\uC-OSII\SOFTWARE\uCOS-II\SOURCE/os_task.c" 1
 2340 08fc 0F91      		POP  R16
 2341               	 ;  0 "" 2
 2342               	/* #NOAPP */
 2343 08fe 89E2      		ldi r24,lo8(41)
 2344 0900 0895      		ret
 2345               	.L133:
 2346               	.LM327:
 2347 0902 DB01      		movw r26,r22
 2348 0904 83E1      		ldi r24,lo8(19)
 2349               	.LVL170:
 2350               	.L135:
 2351 0906 0190      		ld r0,Z+
 2352 0908 0D92      		st X+,r0
 2353 090a 8150      		subi r24,lo8(-(-1))
 2354 090c 01F4      		brne .L135
 2355               	.LM328:
 2356               	/* #APP */
 2357               	 ;  905 "E:\ELE542-Lab\uCOSII\uC-OSII\SOFTWARE\uCOS-II\SOURCE/os_task.c" 1
 2358 090e 0F91      		POP  R16
 2359               	 ;  0 "" 2
 2360               	 ;  905 "E:\ELE542-Lab\uCOSII\uC-OSII\SOFTWARE\uCOS-II\SOURCE/os_task.c" 1
 2361 0910 0FBF      		OUT  0x3F,R16
 2362               	 ;  0 "" 2
 2363               	 ;  905 "E:\ELE542-Lab\uCOSII\uC-OSII\SOFTWARE\uCOS-II\SOURCE/os_task.c" 1
 2364 0912 0F91      		POP  R16
 2365               	 ;  0 "" 2
 2366               	.LM329:
 2367               	/* #NOAPP */
 2368 0914 0895      		ret
 2369               	.LFE55:
 2371               	.global	OS_QInit
 2373               	OS_QInit:
 2374               	.LFB48:
 2375               	.LM330:
 2376               	/* prologue: function */
 2377               	/* frame size = 0 */
 2378               	.LM331:
 2379 0916 E0E0      		ldi r30,lo8(OSQTbl)
 2380 0918 F0E0      		ldi r31,hi8(OSQTbl)
 2381 091a 8CE1      		ldi r24,lo8(28)
 2382 091c DF01      		movw r26,r30
 2383 091e 1D92      		st X+,__zero_reg__
 2384 0920 8A95      	        dec r24
 2385 0922 01F4      		brne .-6
 2386               	.LM332:
 2387 0924 3E96      		adiw r30,14
 2388 0926 F093 0000 		sts (OSQTbl)+1,r31
 2389 092a E093 0000 		sts OSQTbl,r30
 2390 092e 3E97      		sbiw r30,14
 2391               	.LM333:
 2392 0930 1092 0000 		sts (OSQTbl+14)+1,__zero_reg__
 2393 0934 1092 0000 		sts OSQTbl+14,__zero_reg__
 2394               	.LM334:
 2395 0938 F093 0000 		sts (OSQFreeList)+1,r31
 2396 093c E093 0000 		sts OSQFreeList,r30
 2397               	/* epilogue start */
 2398               	.LM335:
 2399 0940 0895      		ret
 2400               	.LFE48:
 2402               	.global	OS_FlagInit
 2404               	OS_FlagInit:
 2405               	.LFB27:
 2406               	.LM336:
 2407               	/* prologue: function */
 2408               	/* frame size = 0 */
 2409               	.LM337:
 2410 0942 E0E0      		ldi r30,lo8(OSFlagTbl)
 2411 0944 F0E0      		ldi r31,hi8(OSFlagTbl)
 2412 0946 84E1      		ldi r24,lo8(20)
 2413 0948 DF01      		movw r26,r30
 2414 094a 1D92      		st X+,__zero_reg__
 2415 094c 8A95      	        dec r24
 2416 094e 01F4      		brne .-6
 2417               	.L141:
 2418 0950 CF01      		movw r24,r30
 2419               	.LVL171:
 2420 0952 0496      		adiw r24,4
 2421               	.LM338:
 2422 0954 1082      		st Z,__zero_reg__
 2423               	.LM339:
 2424 0956 9283      		std Z+2,r25
 2425 0958 8183      		std Z+1,r24
 2426 095a FC01      		movw r30,r24
 2427               	.LM340:
 2428 095c B0E0      		ldi r27,hi8(OSFlagTbl+16)
 2429 095e 8030      		cpi r24,lo8(OSFlagTbl+16)
 2430 0960 9B07      		cpc r25,r27
 2431 0962 01F4      		brne .L141
 2432               	.LVL172:
 2433               	.LM341:
 2434 0964 1082      		st Z,__zero_reg__
 2435               	.LM342:
 2436 0966 1282      		std Z+2,__zero_reg__
 2437 0968 1182      		std Z+1,__zero_reg__
 2438               	.LM343:
 2439 096a 7097      		sbiw r30,16
 2440               	.LVL173:
 2441 096c F093 0000 		sts (OSFlagFreeList)+1,r31
 2442 0970 E093 0000 		sts OSFlagFreeList,r30
 2443               	/* epilogue start */
 2444               	.LM344:
 2445 0974 0895      		ret
 2446               	.LFE27:
 2448               	.global	OS_TCBInit
 2450               	OS_TCBInit:
 2451               	.LFB19:
 2452               	.LM345:
 2453               	.LVL174:
 2454 0976 1F93      		push r17
 2455 0978 CF93      		push r28
 2456 097a DF93      		push r29
 2457               	/* prologue: function */
 2458               	/* frame size = 0 */
 2459 097c 182F      		mov r17,r24
 2460               	.LM346:
 2461               	/* #APP */
 2462               	 ;  1432 "E:\ELE542-Lab\uCOSII\uC-OSII\SOFTWARE\uCOS-II\SOURCE/os_core.c" 1
 2463 097e 0F93      		PUSH  R16
 2464               	 ;  0 "" 2
 2465               	 ;  1432 "E:\ELE542-Lab\uCOSII\uC-OSII\SOFTWARE\uCOS-II\SOURCE/os_core.c" 1
 2466 0980 0FB7      		IN    R16,0x3F
 2467               	 ;  0 "" 2
 2468               	 ;  1432 "E:\ELE542-Lab\uCOSII\uC-OSII\SOFTWARE\uCOS-II\SOURCE/os_core.c" 1
 2469 0982 0F93      		PUSH  R16
 2470               	 ;  0 "" 2
 2471               	 ;  1432 "E:\ELE542-Lab\uCOSII\uC-OSII\SOFTWARE\uCOS-II\SOURCE/os_core.c" 1
 2472 0984 F894      		cli
 2473               	 ;  0 "" 2
 2474               	.LM347:
 2475               	/* #NOAPP */
 2476 0986 C091 0000 		lds r28,OSTCBFreeList
 2477 098a D091 0000 		lds r29,(OSTCBFreeList)+1
 2478               	.LVL175:
 2479               	.LM348:
 2480 098e 2097      		sbiw r28,0
 2481 0990 01F4      		brne .+2
 2482 0992 00C0      		rjmp .L145
 2483               	.LVL176:
 2484               	.LM349:
 2485 0994 8A81      		ldd r24,Y+2
 2486 0996 9B81      		ldd r25,Y+3
 2487 0998 9093 0000 		sts (OSTCBFreeList)+1,r25
 2488 099c 8093 0000 		sts OSTCBFreeList,r24
 2489               	.LM350:
 2490               	/* #APP */
 2491               	 ;  1436 "E:\ELE542-Lab\uCOSII\uC-OSII\SOFTWARE\uCOS-II\SOURCE/os_core.c" 1
 2492 09a0 0F91      		POP  R16
 2493               	 ;  0 "" 2
 2494               	 ;  1436 "E:\ELE542-Lab\uCOSII\uC-OSII\SOFTWARE\uCOS-II\SOURCE/os_core.c" 1
 2495 09a2 0FBF      		OUT  0x3F,R16
 2496               	 ;  0 "" 2
 2497               	 ;  1436 "E:\ELE542-Lab\uCOSII\uC-OSII\SOFTWARE\uCOS-II\SOURCE/os_core.c" 1
 2498 09a4 0F91      		POP  R16
 2499               	 ;  0 "" 2
 2500               	.LM351:
 2501               	/* #NOAPP */
 2502 09a6 7983      		std Y+1,r23
 2503 09a8 6883      		st Y,r22
 2504               	.LM352:
 2505 09aa 1E87      		std Y+14,r17
 2506               	.LM353:
 2507 09ac 1D86      		std Y+13,__zero_reg__
 2508               	.LM354:
 2509 09ae 1C86      		std Y+12,__zero_reg__
 2510 09b0 1B86      		std Y+11,__zero_reg__
 2511               	.LM355:
 2512 09b2 E12F      		mov r30,r17
 2513 09b4 E695      		lsr r30
 2514 09b6 E695      		lsr r30
 2515 09b8 E695      		lsr r30
 2516 09ba E88B      		std Y+16,r30
 2517               	.LM356:
 2518 09bc F0E0      		ldi r31,lo8(0)
 2519 09be E050      		subi r30,lo8(-(OSMapTbl))
 2520 09c0 F040      		sbci r31,hi8(-(OSMapTbl))
 2521 09c2 8081      		ld r24,Z
 2522 09c4 8A8B      		std Y+18,r24
 2523               	.LM357:
 2524 09c6 E12F      		mov r30,r17
 2525 09c8 E770      		andi r30,lo8(7)
 2526 09ca EF87      		std Y+15,r30
 2527               	.LM358:
 2528 09cc F0E0      		ldi r31,lo8(0)
 2529 09ce E050      		subi r30,lo8(-(OSMapTbl))
 2530 09d0 F040      		sbci r31,hi8(-(OSMapTbl))
 2531 09d2 8081      		ld r24,Z
 2532 09d4 898B      		std Y+17,r24
 2533               	.LM359:
 2534 09d6 1F82      		std Y+7,__zero_reg__
 2535 09d8 1E82      		std Y+6,__zero_reg__
 2536               	.LM360:
 2537 09da 1986      		std Y+9,__zero_reg__
 2538 09dc 1886      		std Y+8,__zero_reg__
 2539               	.LM361:
 2540 09de CE01      		movw r24,r28
 2541 09e0 0E94 0000 		call OSTCBInitHook
 2542               	.LVL177:
 2543               	.LM362:
 2544 09e4 CE01      		movw r24,r28
 2545 09e6 0E94 0000 		call OSTaskCreateHook
 2546               	.LM363:
 2547               	/* #APP */
 2548               	 ;  1495 "E:\ELE542-Lab\uCOSII\uC-OSII\SOFTWARE\uCOS-II\SOURCE/os_core.c" 1
 2549 09ea 0F93      		PUSH  R16
 2550               	 ;  0 "" 2
 2551               	 ;  1495 "E:\ELE542-Lab\uCOSII\uC-OSII\SOFTWARE\uCOS-II\SOURCE/os_core.c" 1
 2552 09ec 0FB7      		IN    R16,0x3F
 2553               	 ;  0 "" 2
 2554               	 ;  1495 "E:\ELE542-Lab\uCOSII\uC-OSII\SOFTWARE\uCOS-II\SOURCE/os_core.c" 1
 2555 09ee 0F93      		PUSH  R16
 2556               	 ;  0 "" 2
 2557               	 ;  1495 "E:\ELE542-Lab\uCOSII\uC-OSII\SOFTWARE\uCOS-II\SOURCE/os_core.c" 1
 2558 09f0 F894      		cli
 2559               	 ;  0 "" 2
 2560               	.LM364:
 2561               	/* #NOAPP */
 2562 09f2 E12F      		mov r30,r17
 2563 09f4 F0E0      		ldi r31,lo8(0)
 2564               	.LVL178:
 2565 09f6 EE0F      		lsl r30
 2566 09f8 FF1F      		rol r31
 2567               	.LVL179:
 2568 09fa E050      		subi r30,lo8(-(OSTCBPrioTbl))
 2569 09fc F040      		sbci r31,hi8(-(OSTCBPrioTbl))
 2570               	.LVL180:
 2571 09fe D183      		std Z+1,r29
 2572 0a00 C083      		st Z,r28
 2573               	.LM365:
 2574 0a02 E091 0000 		lds r30,OSTCBList
 2575 0a06 F091 0000 		lds r31,(OSTCBList)+1
 2576               	.LVL181:
 2577 0a0a FB83      		std Y+3,r31
 2578 0a0c EA83      		std Y+2,r30
 2579               	.LM366:
 2580 0a0e 1D82      		std Y+5,__zero_reg__
 2581 0a10 1C82      		std Y+4,__zero_reg__
 2582               	.LM367:
 2583 0a12 3097      		sbiw r30,0
 2584 0a14 01F0      		breq .L146
 2585               	.LM368:
 2586 0a16 D583      		std Z+5,r29
 2587 0a18 C483      		std Z+4,r28
 2588               	.L146:
 2589               	.LM369:
 2590 0a1a D093 0000 		sts (OSTCBList)+1,r29
 2591 0a1e C093 0000 		sts OSTCBList,r28
 2592               	.LM370:
 2593 0a22 8091 0000 		lds r24,OSRdyGrp
 2594 0a26 9A89      		ldd r25,Y+18
 2595 0a28 892B      		or r24,r25
 2596 0a2a 8093 0000 		sts OSRdyGrp,r24
 2597               	.LM371:
 2598 0a2e E889      		ldd r30,Y+16
 2599 0a30 F0E0      		ldi r31,lo8(0)
 2600               	.LVL182:
 2601 0a32 E050      		subi r30,lo8(-(OSRdyTbl))
 2602 0a34 F040      		sbci r31,hi8(-(OSRdyTbl))
 2603 0a36 8081      		ld r24,Z
 2604 0a38 9989      		ldd r25,Y+17
 2605 0a3a 892B      		or r24,r25
 2606 0a3c 8083      		st Z,r24
 2607               	.LM372:
 2608               	/* #APP */
 2609               	 ;  1505 "E:\ELE542-Lab\uCOSII\uC-OSII\SOFTWARE\uCOS-II\SOURCE/os_core.c" 1
 2610 0a3e 0F91      		POP  R16
 2611               	 ;  0 "" 2
 2612               	 ;  1505 "E:\ELE542-Lab\uCOSII\uC-OSII\SOFTWARE\uCOS-II\SOURCE/os_core.c" 1
 2613 0a40 0FBF      		OUT  0x3F,R16
 2614               	 ;  0 "" 2
 2615               	 ;  1505 "E:\ELE542-Lab\uCOSII\uC-OSII\SOFTWARE\uCOS-II\SOURCE/os_core.c" 1
 2616 0a42 0F91      		POP  R16
 2617               	 ;  0 "" 2
 2618               	/* #NOAPP */
 2619 0a44 80E0      		ldi r24,lo8(0)
 2620 0a46 00C0      		rjmp .L147
 2621               	.LVL183:
 2622               	.L145:
 2623               	.LM373:
 2624               	/* #APP */
 2625               	 ;  1508 "E:\ELE542-Lab\uCOSII\uC-OSII\SOFTWARE\uCOS-II\SOURCE/os_core.c" 1
 2626 0a48 0F91      		POP  R16
 2627               	 ;  0 "" 2
 2628               	 ;  1508 "E:\ELE542-Lab\uCOSII\uC-OSII\SOFTWARE\uCOS-II\SOURCE/os_core.c" 1
 2629 0a4a 0FBF      		OUT  0x3F,R16
 2630               	 ;  0 "" 2
 2631               	 ;  1508 "E:\ELE542-Lab\uCOSII\uC-OSII\SOFTWARE\uCOS-II\SOURCE/os_core.c" 1
 2632 0a4c 0F91      		POP  R16
 2633               	 ;  0 "" 2
 2634               	/* #NOAPP */
 2635 0a4e 86E4      		ldi r24,lo8(70)
 2636               	.L147:
 2637               	/* epilogue start */
 2638               	.LM374:
 2639 0a50 DF91      		pop r29
 2640 0a52 CF91      		pop r28
 2641               	.LVL184:
 2642 0a54 1F91      		pop r17
 2643               	.LVL185:
 2644 0a56 0895      		ret
 2645               	.LFE19:
 2647               	.global	OS_TaskIdle
 2649               	OS_TaskIdle:
 2650               	.LFB18:
 2651               	.LM375:
 2652               	/* prologue: function */
 2653               	/* frame size = 0 */
 2654               	.LVL186:
 2655               	.L150:
 2656               	.LM376:
 2657               	/* #APP */
 2658               	 ;  1263 "E:\ELE542-Lab\uCOSII\uC-OSII\SOFTWARE\uCOS-II\SOURCE/os_core.c" 1
 2659 0a58 0F93      		PUSH  R16
 2660               	 ;  0 "" 2
 2661               	 ;  1263 "E:\ELE542-Lab\uCOSII\uC-OSII\SOFTWARE\uCOS-II\SOURCE/os_core.c" 1
 2662 0a5a 0FB7      		IN    R16,0x3F
 2663               	 ;  0 "" 2
 2664               	 ;  1263 "E:\ELE542-Lab\uCOSII\uC-OSII\SOFTWARE\uCOS-II\SOURCE/os_core.c" 1
 2665 0a5c 0F93      		PUSH  R16
 2666               	 ;  0 "" 2
 2667               	 ;  1263 "E:\ELE542-Lab\uCOSII\uC-OSII\SOFTWARE\uCOS-II\SOURCE/os_core.c" 1
 2668 0a5e F894      		cli
 2669               	 ;  0 "" 2
 2670               	.LM377:
 2671               	/* #NOAPP */
 2672 0a60 8091 0000 		lds r24,OSIdleCtr
 2673 0a64 9091 0000 		lds r25,(OSIdleCtr)+1
 2674 0a68 A091 0000 		lds r26,(OSIdleCtr)+2
 2675 0a6c B091 0000 		lds r27,(OSIdleCtr)+3
 2676               	.LVL187:
 2677 0a70 0196      		adiw r24,1
 2678 0a72 A11D      		adc r26,__zero_reg__
 2679 0a74 B11D      		adc r27,__zero_reg__
 2680 0a76 8093 0000 		sts OSIdleCtr,r24
 2681 0a7a 9093 0000 		sts (OSIdleCtr)+1,r25
 2682 0a7e A093 0000 		sts (OSIdleCtr)+2,r26
 2683 0a82 B093 0000 		sts (OSIdleCtr)+3,r27
 2684               	.LM378:
 2685               	/* #APP */
 2686               	 ;  1265 "E:\ELE542-Lab\uCOSII\uC-OSII\SOFTWARE\uCOS-II\SOURCE/os_core.c" 1
 2687 0a86 0F91      		POP  R16
 2688               	 ;  0 "" 2
 2689               	 ;  1265 "E:\ELE542-Lab\uCOSII\uC-OSII\SOFTWARE\uCOS-II\SOURCE/os_core.c" 1
 2690 0a88 0FBF      		OUT  0x3F,R16
 2691               	 ;  0 "" 2
 2692               	 ;  1265 "E:\ELE542-Lab\uCOSII\uC-OSII\SOFTWARE\uCOS-II\SOURCE/os_core.c" 1
 2693 0a8a 0F91      		POP  R16
 2694               	 ;  0 "" 2
 2695               	.LM379:
 2696               	/* #NOAPP */
 2697 0a8c 0E94 0000 		call OSTaskIdleHook
 2698 0a90 00C0      		rjmp .L150
 2699               	.LFE18:
 2701               	.global	OS_Sched
 2703               	OS_Sched:
 2704               	.LFB17:
 2705               	.LM380:
 2706               	/* prologue: function */
 2707               	/* frame size = 0 */
 2708               	.LM381:
 2709               	/* #APP */
 2710               	 ;  1215 "E:\ELE542-Lab\uCOSII\uC-OSII\SOFTWARE\uCOS-II\SOURCE/os_core.c" 1
 2711 0a92 0F93      		PUSH  R16
 2712               	 ;  0 "" 2
 2713               	 ;  1215 "E:\ELE542-Lab\uCOSII\uC-OSII\SOFTWARE\uCOS-II\SOURCE/os_core.c" 1
 2714 0a94 0FB7      		IN    R16,0x3F
 2715               	 ;  0 "" 2
 2716               	 ;  1215 "E:\ELE542-Lab\uCOSII\uC-OSII\SOFTWARE\uCOS-II\SOURCE/os_core.c" 1
 2717 0a96 0F93      		PUSH  R16
 2718               	 ;  0 "" 2
 2719               	 ;  1215 "E:\ELE542-Lab\uCOSII\uC-OSII\SOFTWARE\uCOS-II\SOURCE/os_core.c" 1
 2720 0a98 F894      		cli
 2721               	 ;  0 "" 2
 2722               	.LM382:
 2723               	/* #NOAPP */
 2724 0a9a 8091 0000 		lds r24,OSIntNesting
 2725 0a9e 8823      		tst r24
 2726 0aa0 01F0      		breq .+2
 2727 0aa2 00C0      		rjmp .L153
 2728               	.LM383:
 2729 0aa4 8091 0000 		lds r24,OSLockNesting
 2730 0aa8 8823      		tst r24
 2731 0aaa 01F4      		brne .L153
 2732               	.LM384:
 2733 0aac E091 0000 		lds r30,OSRdyGrp
 2734 0ab0 F0E0      		ldi r31,lo8(0)
 2735 0ab2 E050      		subi r30,lo8(-(OSUnMapTbl))
 2736 0ab4 F040      		sbci r31,hi8(-(OSUnMapTbl))
 2737 0ab6 8081      		ld r24,Z
 2738               	.LVL188:
 2739               	.LM385:
 2740 0ab8 E82F      		mov r30,r24
 2741 0aba F0E0      		ldi r31,lo8(0)
 2742               	.LVL189:
 2743 0abc E050      		subi r30,lo8(-(OSRdyTbl))
 2744 0abe F040      		sbci r31,hi8(-(OSRdyTbl))
 2745               	.LVL190:
 2746 0ac0 E081      		ld r30,Z
 2747               	.LVL191:
 2748 0ac2 F0E0      		ldi r31,lo8(0)
 2749               	.LVL192:
 2750 0ac4 E050      		subi r30,lo8(-(OSUnMapTbl))
 2751 0ac6 F040      		sbci r31,hi8(-(OSUnMapTbl))
 2752 0ac8 982F      		mov r25,r24
 2753               	.LVL193:
 2754 0aca 990F      		lsl r25
 2755 0acc 990F      		lsl r25
 2756 0ace 990F      		lsl r25
 2757 0ad0 8081      		ld r24,Z
 2758               	.LVL194:
 2759 0ad2 980F      		add r25,r24
 2760 0ad4 9093 0000 		sts OSPrioHighRdy,r25
 2761               	.LM386:
 2762 0ad8 8091 0000 		lds r24,OSPrioCur
 2763 0adc 9817      		cp r25,r24
 2764 0ade 01F0      		breq .L153
 2765               	.LM387:
 2766 0ae0 E92F      		mov r30,r25
 2767 0ae2 F0E0      		ldi r31,lo8(0)
 2768 0ae4 EE0F      		lsl r30
 2769 0ae6 FF1F      		rol r31
 2770 0ae8 E050      		subi r30,lo8(-(OSTCBPrioTbl))
 2771 0aea F040      		sbci r31,hi8(-(OSTCBPrioTbl))
 2772 0aec 8081      		ld r24,Z
 2773 0aee 9181      		ldd r25,Z+1
 2774 0af0 9093 0000 		sts (OSTCBHighRdy)+1,r25
 2775 0af4 8093 0000 		sts OSTCBHighRdy,r24
 2776               	.LM388:
 2777 0af8 8091 0000 		lds r24,OSCtxSwCtr
 2778 0afc 9091 0000 		lds r25,(OSCtxSwCtr)+1
 2779 0b00 A091 0000 		lds r26,(OSCtxSwCtr)+2
 2780 0b04 B091 0000 		lds r27,(OSCtxSwCtr)+3
 2781 0b08 0196      		adiw r24,1
 2782 0b0a A11D      		adc r26,__zero_reg__
 2783 0b0c B11D      		adc r27,__zero_reg__
 2784 0b0e 8093 0000 		sts OSCtxSwCtr,r24
 2785 0b12 9093 0000 		sts (OSCtxSwCtr)+1,r25
 2786 0b16 A093 0000 		sts (OSCtxSwCtr)+2,r26
 2787 0b1a B093 0000 		sts (OSCtxSwCtr)+3,r27
 2788               	.LM389:
 2789 0b1e 0E94 0000 		call OSCtxSw
 2790               	.L153:
 2791               	.LM390:
 2792               	/* #APP */
 2793               	 ;  1230 "E:\ELE542-Lab\uCOSII\uC-OSII\SOFTWARE\uCOS-II\SOURCE/os_core.c" 1
 2794 0b22 0F91      		POP  R16
 2795               	 ;  0 "" 2
 2796               	 ;  1230 "E:\ELE542-Lab\uCOSII\uC-OSII\SOFTWARE\uCOS-II\SOURCE/os_core.c" 1
 2797 0b24 0FBF      		OUT  0x3F,R16
 2798               	 ;  0 "" 2
 2799               	 ;  1230 "E:\ELE542-Lab\uCOSII\uC-OSII\SOFTWARE\uCOS-II\SOURCE/os_core.c" 1
 2800 0b26 0F91      		POP  R16
 2801               	 ;  0 "" 2
 2802               	/* epilogue start */
 2803               	.LM391:
 2804               	/* #NOAPP */
 2805 0b28 0895      		ret
 2806               	.LFE17:
 2808               	.global	OSTimeDlyResume
 2810               	OSTimeDlyResume:
 2811               	.LFB57:
 2812               	.LM392:
 2813               	.LVL195:
 2814               	/* prologue: function */
 2815               	/* frame size = 0 */
 2816               	.LM393:
 2817 0b2a 8F30      		cpi r24,lo8(15)
 2818 0b2c 00F0      		brlo .L156
 2819 0b2e 8AE2      		ldi r24,lo8(42)
 2820               	.LVL196:
 2821 0b30 0895      		ret
 2822               	.LVL197:
 2823               	.L156:
 2824               	.LM394:
 2825               	/* #APP */
 2826               	 ;  158 "E:\ELE542-Lab\uCOSII\uC-OSII\SOFTWARE\uCOS-II\SOURCE/os_time.c" 1
 2827 0b32 0F93      		PUSH  R16
 2828               	 ;  0 "" 2
 2829               	 ;  158 "E:\ELE542-Lab\uCOSII\uC-OSII\SOFTWARE\uCOS-II\SOURCE/os_time.c" 1
 2830 0b34 0FB7      		IN    R16,0x3F
 2831               	 ;  0 "" 2
 2832               	 ;  158 "E:\ELE542-Lab\uCOSII\uC-OSII\SOFTWARE\uCOS-II\SOURCE/os_time.c" 1
 2833 0b36 0F93      		PUSH  R16
 2834               	 ;  0 "" 2
 2835               	 ;  158 "E:\ELE542-Lab\uCOSII\uC-OSII\SOFTWARE\uCOS-II\SOURCE/os_time.c" 1
 2836 0b38 F894      		cli
 2837               	 ;  0 "" 2
 2838               	.LM395:
 2839               	/* #NOAPP */
 2840 0b3a E82F      		mov r30,r24
 2841 0b3c F0E0      		ldi r31,lo8(0)
 2842               	.LVL198:
 2843 0b3e EE0F      		lsl r30
 2844 0b40 FF1F      		rol r31
 2845               	.LVL199:
 2846 0b42 E050      		subi r30,lo8(-(OSTCBPrioTbl))
 2847 0b44 F040      		sbci r31,hi8(-(OSTCBPrioTbl))
 2848               	.LVL200:
 2849 0b46 A081      		ld r26,Z
 2850 0b48 B181      		ldd r27,Z+1
 2851               	.LVL201:
 2852               	.LM396:
 2853 0b4a 1097      		sbiw r26,0
 2854 0b4c 01F0      		breq .L158
 2855               	.LM397:
 2856 0b4e 1B96      		adiw r26,11
 2857 0b50 8D91      		ld r24,X+
 2858 0b52 9C91      		ld r25,X
 2859 0b54 1C97      		sbiw r26,11+1
 2860 0b56 892B      		or r24,r25
 2861 0b58 01F0      		breq .L159
 2862               	.LM398:
 2863 0b5a 1C96      		adiw r26,11+1
 2864 0b5c 1C92      		st X,__zero_reg__
 2865 0b5e 1E92      		st -X,__zero_reg__
 2866 0b60 1B97      		sbiw r26,11
 2867               	.LM399:
 2868 0b62 1D96      		adiw r26,13
 2869 0b64 8C91      		ld r24,X
 2870 0b66 1D97      		sbiw r26,13
 2871 0b68 83FD      		sbrc r24,3
 2872 0b6a 00C0      		rjmp .L160
 2873               	.LM400:
 2874 0b6c 8091 0000 		lds r24,OSRdyGrp
 2875 0b70 5296      		adiw r26,18
 2876 0b72 9C91      		ld r25,X
 2877 0b74 5297      		sbiw r26,18
 2878 0b76 892B      		or r24,r25
 2879 0b78 8093 0000 		sts OSRdyGrp,r24
 2880               	.LM401:
 2881 0b7c 5096      		adiw r26,16
 2882 0b7e EC91      		ld r30,X
 2883 0b80 5097      		sbiw r26,16
 2884               	.LVL202:
 2885 0b82 F0E0      		ldi r31,lo8(0)
 2886               	.LVL203:
 2887 0b84 E050      		subi r30,lo8(-(OSRdyTbl))
 2888 0b86 F040      		sbci r31,hi8(-(OSRdyTbl))
 2889 0b88 8081      		ld r24,Z
 2890 0b8a 5196      		adiw r26,17
 2891 0b8c 9C91      		ld r25,X
 2892 0b8e 892B      		or r24,r25
 2893 0b90 8083      		st Z,r24
 2894               	.LM402:
 2895               	/* #APP */
 2896               	 ;  166 "E:\ELE542-Lab\uCOSII\uC-OSII\SOFTWARE\uCOS-II\SOURCE/os_time.c" 1
 2897 0b92 0F91      		POP  R16
 2898               	 ;  0 "" 2
 2899               	 ;  166 "E:\ELE542-Lab\uCOSII\uC-OSII\SOFTWARE\uCOS-II\SOURCE/os_time.c" 1
 2900 0b94 0FBF      		OUT  0x3F,R16
 2901               	 ;  0 "" 2
 2902               	 ;  166 "E:\ELE542-Lab\uCOSII\uC-OSII\SOFTWARE\uCOS-II\SOURCE/os_time.c" 1
 2903 0b96 0F91      		POP  R16
 2904               	 ;  0 "" 2
 2905               	.LM403:
 2906               	/* #NOAPP */
 2907 0b98 0E94 0000 		call OS_Sched
 2908               	.LVL204:
 2909 0b9c 00C0      		rjmp .L162
 2910               	.LVL205:
 2911               	.L160:
 2912               	.LM404:
 2913               	/* #APP */
 2914               	 ;  169 "E:\ELE542-Lab\uCOSII\uC-OSII\SOFTWARE\uCOS-II\SOURCE/os_time.c" 1
 2915 0b9e 0F91      		POP  R16
 2916               	 ;  0 "" 2
 2917               	 ;  169 "E:\ELE542-Lab\uCOSII\uC-OSII\SOFTWARE\uCOS-II\SOURCE/os_time.c" 1
 2918 0ba0 0FBF      		OUT  0x3F,R16
 2919               	 ;  0 "" 2
 2920               	 ;  169 "E:\ELE542-Lab\uCOSII\uC-OSII\SOFTWARE\uCOS-II\SOURCE/os_time.c" 1
 2921 0ba2 0F91      		POP  R16
 2922               	 ;  0 "" 2
 2923               	/* #NOAPP */
 2924               	.L162:
 2925 0ba4 80E0      		ldi r24,lo8(0)
 2926 0ba6 0895      		ret
 2927               	.L159:
 2928               	.LM405:
 2929               	/* #APP */
 2930               	 ;  173 "E:\ELE542-Lab\uCOSII\uC-OSII\SOFTWARE\uCOS-II\SOURCE/os_time.c" 1
 2931 0ba8 0F91      		POP  R16
 2932               	 ;  0 "" 2
 2933               	 ;  173 "E:\ELE542-Lab\uCOSII\uC-OSII\SOFTWARE\uCOS-II\SOURCE/os_time.c" 1
 2934 0baa 0FBF      		OUT  0x3F,R16
 2935               	 ;  0 "" 2
 2936               	 ;  173 "E:\ELE542-Lab\uCOSII\uC-OSII\SOFTWARE\uCOS-II\SOURCE/os_time.c" 1
 2937 0bac 0F91      		POP  R16
 2938               	 ;  0 "" 2
 2939               	/* #NOAPP */
 2940 0bae 80E5      		ldi r24,lo8(80)
 2941 0bb0 0895      		ret
 2942               	.L158:
 2943               	.LM406:
 2944               	/* #APP */
 2945               	 ;  177 "E:\ELE542-Lab\uCOSII\uC-OSII\SOFTWARE\uCOS-II\SOURCE/os_time.c" 1
 2946 0bb2 0F91      		POP  R16
 2947               	 ;  0 "" 2
 2948               	 ;  177 "E:\ELE542-Lab\uCOSII\uC-OSII\SOFTWARE\uCOS-II\SOURCE/os_time.c" 1
 2949 0bb4 0FBF      		OUT  0x3F,R16
 2950               	 ;  0 "" 2
 2951               	 ;  177 "E:\ELE542-Lab\uCOSII\uC-OSII\SOFTWARE\uCOS-II\SOURCE/os_time.c" 1
 2952 0bb6 0F91      		POP  R16
 2953               	 ;  0 "" 2
 2954               	/* #NOAPP */
 2955 0bb8 8BE0      		ldi r24,lo8(11)
 2956               	.LM407:
 2957 0bba 0895      		ret
 2958               	.LFE57:
 2960               	.global	OSTimeDly
 2962               	OSTimeDly:
 2963               	.LFB56:
 2964               	.LM408:
 2965               	.LVL206:
 2966               	/* prologue: function */
 2967               	/* frame size = 0 */
 2968 0bbc 9C01      		movw r18,r24
 2969               	.LM409:
 2970 0bbe 0097      		sbiw r24,0
 2971 0bc0 01F0      		breq .L166
 2972               	.LM410:
 2973               	/* #APP */
 2974               	 ;  44 "E:\ELE542-Lab\uCOSII\uC-OSII\SOFTWARE\uCOS-II\SOURCE/os_time.c" 1
 2975 0bc2 0F93      		PUSH  R16
 2976               	 ;  0 "" 2
 2977               	 ;  44 "E:\ELE542-Lab\uCOSII\uC-OSII\SOFTWARE\uCOS-II\SOURCE/os_time.c" 1
 2978 0bc4 0FB7      		IN    R16,0x3F
 2979               	 ;  0 "" 2
 2980               	 ;  44 "E:\ELE542-Lab\uCOSII\uC-OSII\SOFTWARE\uCOS-II\SOURCE/os_time.c" 1
 2981 0bc6 0F93      		PUSH  R16
 2982               	 ;  0 "" 2
 2983               	 ;  44 "E:\ELE542-Lab\uCOSII\uC-OSII\SOFTWARE\uCOS-II\SOURCE/os_time.c" 1
 2984 0bc8 F894      		cli
 2985               	 ;  0 "" 2
 2986               	.LM411:
 2987               	/* #NOAPP */
 2988 0bca A091 0000 		lds r26,OSTCBCur
 2989 0bce B091 0000 		lds r27,(OSTCBCur)+1
 2990               	.LM412:
 2991 0bd2 5096      		adiw r26,16
 2992 0bd4 EC91      		ld r30,X
 2993 0bd6 5097      		sbiw r26,16
 2994 0bd8 F0E0      		ldi r31,lo8(0)
 2995 0bda E050      		subi r30,lo8(-(OSRdyTbl))
 2996 0bdc F040      		sbci r31,hi8(-(OSRdyTbl))
 2997 0bde 5196      		adiw r26,17
 2998 0be0 8C91      		ld r24,X
 2999 0be2 5197      		sbiw r26,17
 3000               	.LVL207:
 3001 0be4 8095      		com r24
 3002 0be6 9081      		ld r25,Z
 3003 0be8 8923      		and r24,r25
 3004 0bea 8083      		st Z,r24
 3005               	.LM413:
 3006 0bec 8823      		tst r24
 3007 0bee 01F4      		brne .L165
 3008               	.LM414:
 3009 0bf0 5296      		adiw r26,18
 3010 0bf2 9C91      		ld r25,X
 3011 0bf4 5297      		sbiw r26,18
 3012 0bf6 9095      		com r25
 3013 0bf8 8091 0000 		lds r24,OSRdyGrp
 3014 0bfc 8923      		and r24,r25
 3015 0bfe 8093 0000 		sts OSRdyGrp,r24
 3016               	.L165:
 3017               	.LM415:
 3018 0c02 1C96      		adiw r26,11+1
 3019 0c04 3C93      		st X,r19
 3020 0c06 2E93      		st -X,r18
 3021 0c08 1B97      		sbiw r26,11
 3022               	.LM416:
 3023               	/* #APP */
 3024               	 ;  51 "E:\ELE542-Lab\uCOSII\uC-OSII\SOFTWARE\uCOS-II\SOURCE/os_time.c" 1
 3025 0c0a 0F91      		POP  R16
 3026               	 ;  0 "" 2
 3027               	 ;  51 "E:\ELE542-Lab\uCOSII\uC-OSII\SOFTWARE\uCOS-II\SOURCE/os_time.c" 1
 3028 0c0c 0FBF      		OUT  0x3F,R16
 3029               	 ;  0 "" 2
 3030               	 ;  51 "E:\ELE542-Lab\uCOSII\uC-OSII\SOFTWARE\uCOS-II\SOURCE/os_time.c" 1
 3031 0c0e 0F91      		POP  R16
 3032               	 ;  0 "" 2
 3033               	.LM417:
 3034               	/* #NOAPP */
 3035 0c10 0E94 0000 		call OS_Sched
 3036               	.LVL208:
 3037               	.L166:
 3038 0c14 0895      		ret
 3039               	.LFE56:
 3041               	.global	OSTaskCreate
 3043               	OSTaskCreate:
 3044               	.LFB54:
 3045               	.LM418:
 3046               	.LVL209:
 3047 0c16 AF92      		push r10
 3048 0c18 BF92      		push r11
 3049 0c1a CF92      		push r12
 3050 0c1c DF92      		push r13
 3051 0c1e EF92      		push r14
 3052 0c20 FF92      		push r15
 3053 0c22 0F93      		push r16
 3054 0c24 1F93      		push r17
 3055 0c26 CF93      		push r28
 3056 0c28 DF93      		push r29
 3057               	/* prologue: function */
 3058               	/* frame size = 0 */
 3059 0c2a DC01      		movw r26,r24
 3060 0c2c 122F      		mov r17,r18
 3061               	.LM419:
 3062               	/* #APP */
 3063               	 ;  173 "E:\ELE542-Lab\uCOSII\uC-OSII\SOFTWARE\uCOS-II\SOURCE/os_task.c" 1
 3064 0c2e 0F93      		PUSH  R16
 3065               	 ;  0 "" 2
 3066               	 ;  173 "E:\ELE542-Lab\uCOSII\uC-OSII\SOFTWARE\uCOS-II\SOURCE/os_task.c" 1
 3067 0c30 0FB7      		IN    R16,0x3F
 3068               	 ;  0 "" 2
 3069               	 ;  173 "E:\ELE542-Lab\uCOSII\uC-OSII\SOFTWARE\uCOS-II\SOURCE/os_task.c" 1
 3070 0c32 0F93      		PUSH  R16
 3071               	 ;  0 "" 2
 3072               	 ;  173 "E:\ELE542-Lab\uCOSII\uC-OSII\SOFTWARE\uCOS-II\SOURCE/os_task.c" 1
 3073 0c34 F894      		cli
 3074               	 ;  0 "" 2
 3075               	.LM420:
 3076               	/* #NOAPP */
 3077 0c36 C22F      		mov r28,r18
 3078 0c38 D0E0      		ldi r29,lo8(0)
 3079 0c3a FE01      		movw r30,r28
 3080 0c3c EE0F      		lsl r30
 3081 0c3e FF1F      		rol r31
 3082 0c40 E050      		subi r30,lo8(-(OSTCBPrioTbl))
 3083 0c42 F040      		sbci r31,hi8(-(OSTCBPrioTbl))
 3084 0c44 8081      		ld r24,Z
 3085 0c46 9181      		ldd r25,Z+1
 3086               	.LVL210:
 3087 0c48 892B      		or r24,r25
 3088 0c4a 01F0      		breq .+2
 3089 0c4c 00C0      		rjmp .L168
 3090               	.LM421:
 3091 0c4e 81E0      		ldi r24,lo8(1)
 3092 0c50 90E0      		ldi r25,hi8(1)
 3093 0c52 9183      		std Z+1,r25
 3094 0c54 8083      		st Z,r24
 3095               	.LM422:
 3096               	/* #APP */
 3097               	 ;  177 "E:\ELE542-Lab\uCOSII\uC-OSII\SOFTWARE\uCOS-II\SOURCE/os_task.c" 1
 3098 0c56 0F91      		POP  R16
 3099               	 ;  0 "" 2
 3100               	 ;  177 "E:\ELE542-Lab\uCOSII\uC-OSII\SOFTWARE\uCOS-II\SOURCE/os_task.c" 1
 3101 0c58 0FBF      		OUT  0x3F,R16
 3102               	 ;  0 "" 2
 3103               	 ;  177 "E:\ELE542-Lab\uCOSII\uC-OSII\SOFTWARE\uCOS-II\SOURCE/os_task.c" 1
 3104 0c5a 0F91      		POP  R16
 3105               	 ;  0 "" 2
 3106               	.LM423:
 3107               	/* #NOAPP */
 3108 0c5c CD01      		movw r24,r26
 3109 0c5e 20E0      		ldi r18,lo8(0)
 3110 0c60 30E0      		ldi r19,hi8(0)
 3111               	.LVL211:
 3112 0c62 0E94 0000 		call OSTaskStkInit
 3113               	.LVL212:
 3114 0c66 BC01      		movw r22,r24
 3115               	.LVL213:
 3116               	.LM424:
 3117 0c68 812F      		mov r24,r17
 3118 0c6a 40E0      		ldi r20,lo8(0)
 3119 0c6c 50E0      		ldi r21,hi8(0)
 3120 0c6e 20E0      		ldi r18,lo8(0)
 3121 0c70 30E0      		ldi r19,hi8(0)
 3122 0c72 EE24      		clr r14
 3123 0c74 FF24      		clr r15
 3124 0c76 8701      		movw r16,r14
 3125 0c78 CC24      		clr r12
 3126 0c7a DD24      		clr r13
 3127 0c7c AA24      		clr r10
 3128 0c7e BB24      		clr r11
 3129 0c80 0E94 0000 		call OS_TCBInit
 3130               	.LVL214:
 3131 0c84 182F      		mov r17,r24
 3132               	.LVL215:
 3133               	.LM425:
 3134 0c86 8823      		tst r24
 3135 0c88 01F4      		brne .L169
 3136               	.LVL216:
 3137               	.LM426:
 3138               	/* #APP */
 3139               	 ;  181 "E:\ELE542-Lab\uCOSII\uC-OSII\SOFTWARE\uCOS-II\SOURCE/os_task.c" 1
 3140 0c8a 0F93      		PUSH  R16
 3141               	 ;  0 "" 2
 3142               	 ;  181 "E:\ELE542-Lab\uCOSII\uC-OSII\SOFTWARE\uCOS-II\SOURCE/os_task.c" 1
 3143 0c8c 0FB7      		IN    R16,0x3F
 3144               	 ;  0 "" 2
 3145               	 ;  181 "E:\ELE542-Lab\uCOSII\uC-OSII\SOFTWARE\uCOS-II\SOURCE/os_task.c" 1
 3146 0c8e 0F93      		PUSH  R16
 3147               	 ;  0 "" 2
 3148               	 ;  181 "E:\ELE542-Lab\uCOSII\uC-OSII\SOFTWARE\uCOS-II\SOURCE/os_task.c" 1
 3149 0c90 F894      		cli
 3150               	 ;  0 "" 2
 3151               	.LM427:
 3152               	/* #NOAPP */
 3153 0c92 8091 0000 		lds r24,OSTaskCtr
 3154               	.LVL217:
 3155 0c96 8F5F      		subi r24,lo8(-(1))
 3156 0c98 8093 0000 		sts OSTaskCtr,r24
 3157               	.LM428:
 3158               	/* #APP */
 3159               	 ;  183 "E:\ELE542-Lab\uCOSII\uC-OSII\SOFTWARE\uCOS-II\SOURCE/os_task.c" 1
 3160 0c9c 0F91      		POP  R16
 3161               	 ;  0 "" 2
 3162               	 ;  183 "E:\ELE542-Lab\uCOSII\uC-OSII\SOFTWARE\uCOS-II\SOURCE/os_task.c" 1
 3163 0c9e 0FBF      		OUT  0x3F,R16
 3164               	 ;  0 "" 2
 3165               	 ;  183 "E:\ELE542-Lab\uCOSII\uC-OSII\SOFTWARE\uCOS-II\SOURCE/os_task.c" 1
 3166 0ca0 0F91      		POP  R16
 3167               	 ;  0 "" 2
 3168               	.LM429:
 3169               	/* #NOAPP */
 3170 0ca2 8091 0000 		lds r24,OSRunning
 3171 0ca6 8130      		cpi r24,lo8(1)
 3172 0ca8 01F4      		brne .L170
 3173               	.LM430:
 3174 0caa 0E94 0000 		call OS_Sched
 3175 0cae 00C0      		rjmp .L170
 3176               	.LVL218:
 3177               	.L169:
 3178               	.LM431:
 3179               	/* #APP */
 3180               	 ;  188 "E:\ELE542-Lab\uCOSII\uC-OSII\SOFTWARE\uCOS-II\SOURCE/os_task.c" 1
 3181 0cb0 0F93      		PUSH  R16
 3182               	 ;  0 "" 2
 3183               	 ;  188 "E:\ELE542-Lab\uCOSII\uC-OSII\SOFTWARE\uCOS-II\SOURCE/os_task.c" 1
 3184 0cb2 0FB7      		IN    R16,0x3F
 3185               	 ;  0 "" 2
 3186               	 ;  188 "E:\ELE542-Lab\uCOSII\uC-OSII\SOFTWARE\uCOS-II\SOURCE/os_task.c" 1
 3187 0cb4 0F93      		PUSH  R16
 3188               	 ;  0 "" 2
 3189               	 ;  188 "E:\ELE542-Lab\uCOSII\uC-OSII\SOFTWARE\uCOS-II\SOURCE/os_task.c" 1
 3190 0cb6 F894      		cli
 3191               	 ;  0 "" 2
 3192               	.LM432:
 3193               	/* #NOAPP */
 3194 0cb8 CC0F      		lsl r28
 3195 0cba DD1F      		rol r29
 3196 0cbc C050      		subi r28,lo8(-(OSTCBPrioTbl))
 3197 0cbe D040      		sbci r29,hi8(-(OSTCBPrioTbl))
 3198 0cc0 1982      		std Y+1,__zero_reg__
 3199 0cc2 1882      		st Y,__zero_reg__
 3200               	.LM433:
 3201               	/* #APP */
 3202               	 ;  190 "E:\ELE542-Lab\uCOSII\uC-OSII\SOFTWARE\uCOS-II\SOURCE/os_task.c" 1
 3203 0cc4 0F91      		POP  R16
 3204               	 ;  0 "" 2
 3205               	 ;  190 "E:\ELE542-Lab\uCOSII\uC-OSII\SOFTWARE\uCOS-II\SOURCE/os_task.c" 1
 3206 0cc6 0FBF      		OUT  0x3F,R16
 3207               	 ;  0 "" 2
 3208               	 ;  190 "E:\ELE542-Lab\uCOSII\uC-OSII\SOFTWARE\uCOS-II\SOURCE/os_task.c" 1
 3209 0cc8 0F91      		POP  R16
 3210               	 ;  0 "" 2
 3211               	/* #NOAPP */
 3212 0cca 00C0      		rjmp .L170
 3213               	.LVL219:
 3214               	.L168:
 3215               	.LM434:
 3216               	/* #APP */
 3217               	 ;  194 "E:\ELE542-Lab\uCOSII\uC-OSII\SOFTWARE\uCOS-II\SOURCE/os_task.c" 1
 3218 0ccc 0F91      		POP  R16
 3219               	 ;  0 "" 2
 3220               	 ;  194 "E:\ELE542-Lab\uCOSII\uC-OSII\SOFTWARE\uCOS-II\SOURCE/os_task.c" 1
 3221 0cce 0FBF      		OUT  0x3F,R16
 3222               	 ;  0 "" 2
 3223               	 ;  194 "E:\ELE542-Lab\uCOSII\uC-OSII\SOFTWARE\uCOS-II\SOURCE/os_task.c" 1
 3224 0cd0 0F91      		POP  R16
 3225               	 ;  0 "" 2
 3226               	/* #NOAPP */
 3227 0cd2 18E2      		ldi r17,lo8(40)
 3228               	.LVL220:
 3229               	.L170:
 3230               	.LM435:
 3231 0cd4 812F      		mov r24,r17
 3232               	/* epilogue start */
 3233 0cd6 DF91      		pop r29
 3234 0cd8 CF91      		pop r28
 3235 0cda 1F91      		pop r17
 3236               	.LVL221:
 3237 0cdc 0F91      		pop r16
 3238 0cde FF90      		pop r15
 3239 0ce0 EF90      		pop r14
 3240 0ce2 DF90      		pop r13
 3241 0ce4 CF90      		pop r12
 3242 0ce6 BF90      		pop r11
 3243 0ce8 AF90      		pop r10
 3244 0cea 0895      		ret
 3245               	.LFE54:
 3247               	.global	OSSemPost
 3249               	OSSemPost:
 3250               	.LFB52:
 3251               	.LM436:
 3252               	.LVL222:
 3253               	/* prologue: function */
 3254               	/* frame size = 0 */
 3255 0cec FC01      		movw r30,r24
 3256               	.LM437:
 3257 0cee 8081      		ld r24,Z
 3258               	.LVL223:
 3259 0cf0 8330      		cpi r24,lo8(3)
 3260 0cf2 01F0      		breq .L173
 3261 0cf4 81E0      		ldi r24,lo8(1)
 3262 0cf6 0895      		ret
 3263               	.L173:
 3264               	.LM438:
 3265               	/* #APP */
 3266               	 ;  335 "E:\ELE542-Lab\uCOSII\uC-OSII\SOFTWARE\uCOS-II\SOURCE/os_sem.c" 1
 3267 0cf8 0F93      		PUSH  R16
 3268               	 ;  0 "" 2
 3269               	 ;  335 "E:\ELE542-Lab\uCOSII\uC-OSII\SOFTWARE\uCOS-II\SOURCE/os_sem.c" 1
 3270 0cfa 0FB7      		IN    R16,0x3F
 3271               	 ;  0 "" 2
 3272               	 ;  335 "E:\ELE542-Lab\uCOSII\uC-OSII\SOFTWARE\uCOS-II\SOURCE/os_sem.c" 1
 3273 0cfc 0F93      		PUSH  R16
 3274               	 ;  0 "" 2
 3275               	 ;  335 "E:\ELE542-Lab\uCOSII\uC-OSII\SOFTWARE\uCOS-II\SOURCE/os_sem.c" 1
 3276 0cfe F894      		cli
 3277               	 ;  0 "" 2
 3278               	.LM439:
 3279               	/* #NOAPP */
 3280 0d00 8181      		ldd r24,Z+1
 3281 0d02 8823      		tst r24
 3282 0d04 01F0      		breq .L175
 3283               	.LM440:
 3284 0d06 CF01      		movw r24,r30
 3285 0d08 60E0      		ldi r22,lo8(0)
 3286 0d0a 70E0      		ldi r23,hi8(0)
 3287 0d0c 41E0      		ldi r20,lo8(1)
 3288 0d0e 0E94 0000 		call OS_EventTaskRdy
 3289               	.LVL224:
 3290               	.LM441:
 3291               	/* #APP */
 3292               	 ;  338 "E:\ELE542-Lab\uCOSII\uC-OSII\SOFTWARE\uCOS-II\SOURCE/os_sem.c" 1
 3293 0d12 0F91      		POP  R16
 3294               	 ;  0 "" 2
 3295               	 ;  338 "E:\ELE542-Lab\uCOSII\uC-OSII\SOFTWARE\uCOS-II\SOURCE/os_sem.c" 1
 3296 0d14 0FBF      		OUT  0x3F,R16
 3297               	 ;  0 "" 2
 3298               	 ;  338 "E:\ELE542-Lab\uCOSII\uC-OSII\SOFTWARE\uCOS-II\SOURCE/os_sem.c" 1
 3299 0d16 0F91      		POP  R16
 3300               	 ;  0 "" 2
 3301               	.LM442:
 3302               	/* #NOAPP */
 3303 0d18 0E94 0000 		call OS_Sched
 3304 0d1c 00C0      		rjmp .L178
 3305               	.LVL225:
 3306               	.L175:
 3307               	.LM443:
 3308 0d1e 8281      		ldd r24,Z+2
 3309 0d20 9381      		ldd r25,Z+3
 3310 0d22 2FEF      		ldi r18,hi8(-1)
 3311 0d24 8F3F      		cpi r24,lo8(-1)
 3312 0d26 9207      		cpc r25,r18
 3313 0d28 01F0      		breq .L176
 3314               	.LM444:
 3315 0d2a 0196      		adiw r24,1
 3316 0d2c 9383      		std Z+3,r25
 3317 0d2e 8283      		std Z+2,r24
 3318               	.LM445:
 3319               	/* #APP */
 3320               	 ;  344 "E:\ELE542-Lab\uCOSII\uC-OSII\SOFTWARE\uCOS-II\SOURCE/os_sem.c" 1
 3321 0d30 0F91      		POP  R16
 3322               	 ;  0 "" 2
 3323               	 ;  344 "E:\ELE542-Lab\uCOSII\uC-OSII\SOFTWARE\uCOS-II\SOURCE/os_sem.c" 1
 3324 0d32 0FBF      		OUT  0x3F,R16
 3325               	 ;  0 "" 2
 3326               	 ;  344 "E:\ELE542-Lab\uCOSII\uC-OSII\SOFTWARE\uCOS-II\SOURCE/os_sem.c" 1
 3327 0d34 0F91      		POP  R16
 3328               	 ;  0 "" 2
 3329               	/* #NOAPP */
 3330               	.L178:
 3331 0d36 80E0      		ldi r24,lo8(0)
 3332 0d38 0895      		ret
 3333               	.L176:
 3334               	.LM446:
 3335               	/* #APP */
 3336               	 ;  347 "E:\ELE542-Lab\uCOSII\uC-OSII\SOFTWARE\uCOS-II\SOURCE/os_sem.c" 1
 3337 0d3a 0F91      		POP  R16
 3338               	 ;  0 "" 2
 3339               	 ;  347 "E:\ELE542-Lab\uCOSII\uC-OSII\SOFTWARE\uCOS-II\SOURCE/os_sem.c" 1
 3340 0d3c 0FBF      		OUT  0x3F,R16
 3341               	 ;  0 "" 2
 3342               	 ;  347 "E:\ELE542-Lab\uCOSII\uC-OSII\SOFTWARE\uCOS-II\SOURCE/os_sem.c" 1
 3343 0d3e 0F91      		POP  R16
 3344               	 ;  0 "" 2
 3345               	/* #NOAPP */
 3346 0d40 82E3      		ldi r24,lo8(50)
 3347               	.LM447:
 3348 0d42 0895      		ret
 3349               	.LFE52:
 3351               	.global	OSSemPend
 3353               	OSSemPend:
 3354               	.LFB51:
 3355               	.LM448:
 3356               	.LVL226:
 3357 0d44 0F93      		push r16
 3358 0d46 1F93      		push r17
 3359 0d48 CF93      		push r28
 3360 0d4a DF93      		push r29
 3361               	/* prologue: function */
 3362               	/* frame size = 0 */
 3363 0d4c EC01      		movw r28,r24
 3364 0d4e 8A01      		movw r16,r20
 3365               	.LM449:
 3366 0d50 8091 0000 		lds r24,OSIntNesting
 3367               	.LVL227:
 3368 0d54 8823      		tst r24
 3369 0d56 01F0      		breq .L180
 3370               	.LVL228:
 3371               	.LM450:
 3372 0d58 82E0      		ldi r24,lo8(2)
 3373 0d5a 00C0      		rjmp .L189
 3374               	.L180:
 3375               	.LM451:
 3376 0d5c 8881      		ld r24,Y
 3377 0d5e 8330      		cpi r24,lo8(3)
 3378 0d60 01F0      		breq .L182
 3379               	.LM452:
 3380 0d62 81E0      		ldi r24,lo8(1)
 3381 0d64 00C0      		rjmp .L189
 3382               	.L182:
 3383               	.LM453:
 3384               	/* #APP */
 3385               	 ;  277 "E:\ELE542-Lab\uCOSII\uC-OSII\SOFTWARE\uCOS-II\SOURCE/os_sem.c" 1
 3386 0d66 0F93      		PUSH  R16
 3387               	 ;  0 "" 2
 3388               	 ;  277 "E:\ELE542-Lab\uCOSII\uC-OSII\SOFTWARE\uCOS-II\SOURCE/os_sem.c" 1
 3389 0d68 0FB7      		IN    R16,0x3F
 3390               	 ;  0 "" 2
 3391               	 ;  277 "E:\ELE542-Lab\uCOSII\uC-OSII\SOFTWARE\uCOS-II\SOURCE/os_sem.c" 1
 3392 0d6a 0F93      		PUSH  R16
 3393               	 ;  0 "" 2
 3394               	 ;  277 "E:\ELE542-Lab\uCOSII\uC-OSII\SOFTWARE\uCOS-II\SOURCE/os_sem.c" 1
 3395 0d6c F894      		cli
 3396               	 ;  0 "" 2
 3397               	.LM454:
 3398               	/* #NOAPP */
 3399 0d6e 8A81      		ldd r24,Y+2
 3400 0d70 9B81      		ldd r25,Y+3
 3401 0d72 0097      		sbiw r24,0
 3402 0d74 01F0      		breq .L183
 3403               	.LM455:
 3404 0d76 0197      		sbiw r24,1
 3405 0d78 9B83      		std Y+3,r25
 3406 0d7a 8A83      		std Y+2,r24
 3407               	.LM456:
 3408               	/* #APP */
 3409               	 ;  280 "E:\ELE542-Lab\uCOSII\uC-OSII\SOFTWARE\uCOS-II\SOURCE/os_sem.c" 1
 3410 0d7c 0F91      		POP  R16
 3411               	 ;  0 "" 2
 3412               	 ;  280 "E:\ELE542-Lab\uCOSII\uC-OSII\SOFTWARE\uCOS-II\SOURCE/os_sem.c" 1
 3413 0d7e 0FBF      		OUT  0x3F,R16
 3414               	 ;  0 "" 2
 3415               	 ;  280 "E:\ELE542-Lab\uCOSII\uC-OSII\SOFTWARE\uCOS-II\SOURCE/os_sem.c" 1
 3416 0d80 0F91      		POP  R16
 3417               	 ;  0 "" 2
 3418               	/* #NOAPP */
 3419 0d82 00C0      		rjmp .L188
 3420               	.L183:
 3421               	.LM457:
 3422 0d84 A091 0000 		lds r26,OSTCBCur
 3423 0d88 B091 0000 		lds r27,(OSTCBCur)+1
 3424 0d8c 1D96      		adiw r26,13
 3425 0d8e 8C91      		ld r24,X
 3426 0d90 1D97      		sbiw r26,13
 3427 0d92 8160      		ori r24,lo8(1)
 3428 0d94 1D96      		adiw r26,13
 3429 0d96 8C93      		st X,r24
 3430 0d98 1D97      		sbiw r26,13
 3431               	.LM458:
 3432 0d9a 1C96      		adiw r26,11+1
 3433 0d9c 7C93      		st X,r23
 3434 0d9e 6E93      		st -X,r22
 3435 0da0 1B97      		sbiw r26,11
 3436               	.LBB58:
 3437               	.LBB59:
 3438               	.LM459:
 3439 0da2 1796      		adiw r26,6+1
 3440 0da4 DC93      		st X,r29
 3441 0da6 CE93      		st -X,r28
 3442 0da8 1697      		sbiw r26,6
 3443               	.LM460:
 3444 0daa 5096      		adiw r26,16
 3445 0dac 8C91      		ld r24,X
 3446 0dae 5097      		sbiw r26,16
 3447 0db0 282F      		mov r18,r24
 3448 0db2 30E0      		ldi r19,lo8(0)
 3449 0db4 5196      		adiw r26,17
 3450 0db6 4C91      		ld r20,X
 3451 0db8 5197      		sbiw r26,17
 3452 0dba F901      		movw r30,r18
 3453 0dbc E050      		subi r30,lo8(-(OSRdyTbl))
 3454 0dbe F040      		sbci r31,hi8(-(OSRdyTbl))
 3455 0dc0 842F      		mov r24,r20
 3456 0dc2 8095      		com r24
 3457 0dc4 9081      		ld r25,Z
 3458 0dc6 8923      		and r24,r25
 3459 0dc8 8083      		st Z,r24
 3460               	.LM461:
 3461 0dca 8823      		tst r24
 3462 0dcc 01F4      		brne .L184
 3463               	.LM462:
 3464 0dce 5296      		adiw r26,18
 3465 0dd0 9C91      		ld r25,X
 3466 0dd2 5297      		sbiw r26,18
 3467 0dd4 9095      		com r25
 3468 0dd6 8091 0000 		lds r24,OSRdyGrp
 3469 0dda 8923      		and r24,r25
 3470 0ddc 8093 0000 		sts OSRdyGrp,r24
 3471               	.L184:
 3472               	.LM463:
 3473 0de0 FE01      		movw r30,r28
 3474 0de2 E20F      		add r30,r18
 3475 0de4 F31F      		adc r31,r19
 3476 0de6 8681      		ldd r24,Z+6
 3477 0de8 842B      		or r24,r20
 3478 0dea 8683      		std Z+6,r24
 3479               	.LM464:
 3480 0dec 8981      		ldd r24,Y+1
 3481 0dee 5296      		adiw r26,18
 3482 0df0 9C91      		ld r25,X
 3483 0df2 892B      		or r24,r25
 3484 0df4 8983      		std Y+1,r24
 3485               	.LBE59:
 3486               	.LBE58:
 3487               	.LM465:
 3488               	/* #APP */
 3489               	 ;  288 "E:\ELE542-Lab\uCOSII\uC-OSII\SOFTWARE\uCOS-II\SOURCE/os_sem.c" 1
 3490 0df6 0F91      		POP  R16
 3491               	 ;  0 "" 2
 3492               	 ;  288 "E:\ELE542-Lab\uCOSII\uC-OSII\SOFTWARE\uCOS-II\SOURCE/os_sem.c" 1
 3493 0df8 0FBF      		OUT  0x3F,R16
 3494               	 ;  0 "" 2
 3495               	 ;  288 "E:\ELE542-Lab\uCOSII\uC-OSII\SOFTWARE\uCOS-II\SOURCE/os_sem.c" 1
 3496 0dfa 0F91      		POP  R16
 3497               	 ;  0 "" 2
 3498               	.LM466:
 3499               	/* #NOAPP */
 3500 0dfc 0E94 0000 		call OS_Sched
 3501               	.LVL229:
 3502               	.LM467:
 3503               	/* #APP */
 3504               	 ;  290 "E:\ELE542-Lab\uCOSII\uC-OSII\SOFTWARE\uCOS-II\SOURCE/os_sem.c" 1
 3505 0e00 0F93      		PUSH  R16
 3506               	 ;  0 "" 2
 3507               	 ;  290 "E:\ELE542-Lab\uCOSII\uC-OSII\SOFTWARE\uCOS-II\SOURCE/os_sem.c" 1
 3508 0e02 0FB7      		IN    R16,0x3F
 3509               	 ;  0 "" 2
 3510               	 ;  290 "E:\ELE542-Lab\uCOSII\uC-OSII\SOFTWARE\uCOS-II\SOURCE/os_sem.c" 1
 3511 0e04 0F93      		PUSH  R16
 3512               	 ;  0 "" 2
 3513               	 ;  290 "E:\ELE542-Lab\uCOSII\uC-OSII\SOFTWARE\uCOS-II\SOURCE/os_sem.c" 1
 3514 0e06 F894      		cli
 3515               	 ;  0 "" 2
 3516               	.LM468:
 3517               	/* #NOAPP */
 3518 0e08 A091 0000 		lds r26,OSTCBCur
 3519 0e0c B091 0000 		lds r27,(OSTCBCur)+1
 3520 0e10 1D96      		adiw r26,13
 3521 0e12 8C91      		ld r24,X
 3522 0e14 1D97      		sbiw r26,13
 3523 0e16 80FF      		sbrs r24,0
 3524 0e18 00C0      		rjmp .L185
 3525               	.LBB60:
 3526               	.LBB61:
 3527               	.LM469:
 3528 0e1a 5096      		adiw r26,16
 3529 0e1c 8C91      		ld r24,X
 3530 0e1e 5097      		sbiw r26,16
 3531 0e20 FE01      		movw r30,r28
 3532 0e22 E80F      		add r30,r24
 3533 0e24 F11D      		adc r31,__zero_reg__
 3534 0e26 5196      		adiw r26,17
 3535 0e28 8C91      		ld r24,X
 3536 0e2a 5197      		sbiw r26,17
 3537 0e2c 8095      		com r24
 3538 0e2e 9681      		ldd r25,Z+6
 3539 0e30 8923      		and r24,r25
 3540 0e32 8683      		std Z+6,r24
 3541               	.LM470:
 3542 0e34 8823      		tst r24
 3543 0e36 01F4      		brne .L186
 3544               	.LM471:
 3545 0e38 5296      		adiw r26,18
 3546 0e3a 9C91      		ld r25,X
 3547 0e3c 5297      		sbiw r26,18
 3548 0e3e 9095      		com r25
 3549 0e40 8981      		ldd r24,Y+1
 3550 0e42 8923      		and r24,r25
 3551 0e44 8983      		std Y+1,r24
 3552               	.L186:
 3553               	.LM472:
 3554 0e46 1D96      		adiw r26,13
 3555 0e48 1C92      		st X,__zero_reg__
 3556 0e4a 1D97      		sbiw r26,13
 3557               	.LM473:
 3558 0e4c 1796      		adiw r26,6+1
 3559 0e4e 1C92      		st X,__zero_reg__
 3560 0e50 1E92      		st -X,__zero_reg__
 3561 0e52 1697      		sbiw r26,6
 3562               	.LBE61:
 3563               	.LBE60:
 3564               	.LM474:
 3565               	/* #APP */
 3566               	 ;  293 "E:\ELE542-Lab\uCOSII\uC-OSII\SOFTWARE\uCOS-II\SOURCE/os_sem.c" 1
 3567 0e54 0F91      		POP  R16
 3568               	 ;  0 "" 2
 3569               	 ;  293 "E:\ELE542-Lab\uCOSII\uC-OSII\SOFTWARE\uCOS-II\SOURCE/os_sem.c" 1
 3570 0e56 0FBF      		OUT  0x3F,R16
 3571               	 ;  0 "" 2
 3572               	 ;  293 "E:\ELE542-Lab\uCOSII\uC-OSII\SOFTWARE\uCOS-II\SOURCE/os_sem.c" 1
 3573 0e58 0F91      		POP  R16
 3574               	 ;  0 "" 2
 3575               	.LM475:
 3576               	/* #NOAPP */
 3577 0e5a 8AE0      		ldi r24,lo8(10)
 3578               	.LVL230:
 3579               	.L189:
 3580 0e5c F801      		movw r30,r16
 3581 0e5e 8083      		st Z,r24
 3582 0e60 00C0      		rjmp .L187
 3583               	.LVL231:
 3584               	.L185:
 3585               	.LM476:
 3586 0e62 1796      		adiw r26,6+1
 3587 0e64 1C92      		st X,__zero_reg__
 3588 0e66 1E92      		st -X,__zero_reg__
 3589 0e68 1697      		sbiw r26,6
 3590               	.LM477:
 3591               	/* #APP */
 3592               	 ;  298 "E:\ELE542-Lab\uCOSII\uC-OSII\SOFTWARE\uCOS-II\SOURCE/os_sem.c" 1
 3593 0e6a 0F91      		POP  R16
 3594               	 ;  0 "" 2
 3595               	 ;  298 "E:\ELE542-Lab\uCOSII\uC-OSII\SOFTWARE\uCOS-II\SOURCE/os_sem.c" 1
 3596 0e6c 0FBF      		OUT  0x3F,R16
 3597               	 ;  0 "" 2
 3598               	 ;  298 "E:\ELE542-Lab\uCOSII\uC-OSII\SOFTWARE\uCOS-II\SOURCE/os_sem.c" 1
 3599 0e6e 0F91      		POP  R16
 3600               	 ;  0 "" 2
 3601               	.LVL232:
 3602               	/* #NOAPP */
 3603               	.L188:
 3604               	.LM478:
 3605 0e70 F801      		movw r30,r16
 3606 0e72 1082      		st Z,__zero_reg__
 3607               	.L187:
 3608               	/* epilogue start */
 3609               	.LM479:
 3610 0e74 DF91      		pop r29
 3611 0e76 CF91      		pop r28
 3612               	.LVL233:
 3613 0e78 1F91      		pop r17
 3614 0e7a 0F91      		pop r16
 3615               	.LVL234:
 3616 0e7c 0895      		ret
 3617               	.LFE51:
 3619               	.global	OSQPostOpt
 3621               	OSQPostOpt:
 3622               	.LFB46:
 3623               	.LM480:
 3624               	.LVL235:
 3625 0e7e 0F93      		push r16
 3626 0e80 1F93      		push r17
 3627 0e82 CF93      		push r28
 3628 0e84 DF93      		push r29
 3629               	/* prologue: function */
 3630               	/* frame size = 0 */
 3631 0e86 EC01      		movw r28,r24
 3632 0e88 8B01      		movw r16,r22
 3633               	.LM481:
 3634 0e8a 8881      		ld r24,Y
 3635               	.LVL236:
 3636 0e8c 8230      		cpi r24,lo8(2)
 3637 0e8e 01F0      		breq .L191
 3638               	.LVL237:
 3639 0e90 81E0      		ldi r24,lo8(1)
 3640 0e92 00C0      		rjmp .L192
 3641               	.L191:
 3642               	.LM482:
 3643               	/* #APP */
 3644               	 ;  597 "E:\ELE542-Lab\uCOSII\uC-OSII\SOFTWARE\uCOS-II\SOURCE/os_q.c" 1
 3645 0e94 0F93      		PUSH  R16
 3646               	 ;  0 "" 2
 3647               	 ;  597 "E:\ELE542-Lab\uCOSII\uC-OSII\SOFTWARE\uCOS-II\SOURCE/os_q.c" 1
 3648 0e96 0FB7      		IN    R16,0x3F
 3649               	 ;  0 "" 2
 3650               	 ;  597 "E:\ELE542-Lab\uCOSII\uC-OSII\SOFTWARE\uCOS-II\SOURCE/os_q.c" 1
 3651 0e98 0F93      		PUSH  R16
 3652               	 ;  0 "" 2
 3653               	 ;  597 "E:\ELE542-Lab\uCOSII\uC-OSII\SOFTWARE\uCOS-II\SOURCE/os_q.c" 1
 3654 0e9a F894      		cli
 3655               	 ;  0 "" 2
 3656               	.LM483:
 3657               	/* #NOAPP */
 3658 0e9c 8981      		ldd r24,Y+1
 3659 0e9e 8823      		tst r24
 3660 0ea0 01F0      		breq .L193
 3661               	.LM484:
 3662 0ea2 40FD      		sbrc r20,0
 3663 0ea4 00C0      		rjmp .L203
 3664 0ea6 00C0      		rjmp .L206
 3665               	.L196:
 3666               	.LM485:
 3667 0ea8 CE01      		movw r24,r28
 3668 0eaa B801      		movw r22,r16
 3669 0eac 44E0      		ldi r20,lo8(4)
 3670               	.LVL238:
 3671 0eae 0E94 0000 		call OS_EventTaskRdy
 3672               	.LVL239:
 3673               	.L203:
 3674               	.LM486:
 3675 0eb2 8981      		ldd r24,Y+1
 3676 0eb4 8823      		tst r24
 3677 0eb6 01F4      		brne .L196
 3678 0eb8 00C0      		rjmp .L197
 3679               	.L206:
 3680               	.LM487:
 3681 0eba CE01      		movw r24,r28
 3682 0ebc 44E0      		ldi r20,lo8(4)
 3683               	.LVL240:
 3684 0ebe 0E94 0000 		call OS_EventTaskRdy
 3685               	.LVL241:
 3686               	.L197:
 3687               	.LM488:
 3688               	/* #APP */
 3689               	 ;  606 "E:\ELE542-Lab\uCOSII\uC-OSII\SOFTWARE\uCOS-II\SOURCE/os_q.c" 1
 3690 0ec2 0F91      		POP  R16
 3691               	 ;  0 "" 2
 3692               	 ;  606 "E:\ELE542-Lab\uCOSII\uC-OSII\SOFTWARE\uCOS-II\SOURCE/os_q.c" 1
 3693 0ec4 0FBF      		OUT  0x3F,R16
 3694               	 ;  0 "" 2
 3695               	 ;  606 "E:\ELE542-Lab\uCOSII\uC-OSII\SOFTWARE\uCOS-II\SOURCE/os_q.c" 1
 3696 0ec6 0F91      		POP  R16
 3697               	 ;  0 "" 2
 3698               	.LM489:
 3699               	/* #NOAPP */
 3700 0ec8 0E94 0000 		call OS_Sched
 3701               	.LVL242:
 3702 0ecc 00C0      		rjmp .L205
 3703               	.LVL243:
 3704               	.L193:
 3705               	.LM490:
 3706 0ece AC81      		ldd r26,Y+4
 3707 0ed0 BD81      		ldd r27,Y+5
 3708               	.LVL244:
 3709               	.LM491:
 3710 0ed2 1C96      		adiw r26,12
 3711 0ed4 2D91      		ld r18,X+
 3712 0ed6 3C91      		ld r19,X
 3713 0ed8 1D97      		sbiw r26,12+1
 3714 0eda 1A96      		adiw r26,10
 3715 0edc 8D91      		ld r24,X+
 3716 0ede 9C91      		ld r25,X
 3717 0ee0 1B97      		sbiw r26,10+1
 3718 0ee2 2817      		cp r18,r24
 3719 0ee4 3907      		cpc r19,r25
 3720 0ee6 00F0      		brlo .L198
 3721               	.LM492:
 3722               	/* #APP */
 3723               	 ;  612 "E:\ELE542-Lab\uCOSII\uC-OSII\SOFTWARE\uCOS-II\SOURCE/os_q.c" 1
 3724 0ee8 0F91      		POP  R16
 3725               	 ;  0 "" 2
 3726               	 ;  612 "E:\ELE542-Lab\uCOSII\uC-OSII\SOFTWARE\uCOS-II\SOURCE/os_q.c" 1
 3727 0eea 0FBF      		OUT  0x3F,R16
 3728               	 ;  0 "" 2
 3729               	 ;  612 "E:\ELE542-Lab\uCOSII\uC-OSII\SOFTWARE\uCOS-II\SOURCE/os_q.c" 1
 3730 0eec 0F91      		POP  R16
 3731               	 ;  0 "" 2
 3732               	/* #NOAPP */
 3733 0eee 8EE1      		ldi r24,lo8(30)
 3734 0ef0 00C0      		rjmp .L192
 3735               	.L198:
 3736               	.LM493:
 3737 0ef2 41FF      		sbrs r20,1
 3738 0ef4 00C0      		rjmp .L199
 3739               	.LM494:
 3740 0ef6 1896      		adiw r26,8
 3741 0ef8 2D91      		ld r18,X+
 3742 0efa 3C91      		ld r19,X
 3743 0efc 1997      		sbiw r26,8+1
 3744 0efe 1296      		adiw r26,2
 3745 0f00 8D91      		ld r24,X+
 3746 0f02 9C91      		ld r25,X
 3747 0f04 1397      		sbiw r26,2+1
 3748 0f06 2817      		cp r18,r24
 3749 0f08 3907      		cpc r19,r25
 3750 0f0a 01F4      		brne .L200
 3751               	.LM495:
 3752 0f0c 1496      		adiw r26,4
 3753 0f0e 8D91      		ld r24,X+
 3754 0f10 9C91      		ld r25,X
 3755 0f12 1597      		sbiw r26,4+1
 3756 0f14 1996      		adiw r26,8+1
 3757 0f16 9C93      		st X,r25
 3758 0f18 8E93      		st -X,r24
 3759 0f1a 1897      		sbiw r26,8
 3760               	.L200:
 3761               	.LM496:
 3762 0f1c 1896      		adiw r26,8
 3763 0f1e ED91      		ld r30,X+
 3764 0f20 FC91      		ld r31,X
 3765 0f22 1997      		sbiw r26,8+1
 3766 0f24 3297      		sbiw r30,2
 3767 0f26 1996      		adiw r26,8+1
 3768 0f28 FC93      		st X,r31
 3769 0f2a EE93      		st -X,r30
 3770 0f2c 1897      		sbiw r26,8
 3771               	.LM497:
 3772 0f2e 1183      		std Z+1,r17
 3773 0f30 0083      		st Z,r16
 3774 0f32 00C0      		rjmp .L201
 3775               	.L199:
 3776               	.LM498:
 3777 0f34 1696      		adiw r26,6
 3778 0f36 ED91      		ld r30,X+
 3779 0f38 FC91      		ld r31,X
 3780 0f3a 1797      		sbiw r26,6+1
 3781 0f3c 6193      		st Z+,r22
 3782 0f3e 7193      		st Z+,r23
 3783 0f40 1796      		adiw r26,6+1
 3784 0f42 FC93      		st X,r31
 3785 0f44 EE93      		st -X,r30
 3786 0f46 1697      		sbiw r26,6
 3787               	.LM499:
 3788 0f48 1496      		adiw r26,4
 3789 0f4a 8D91      		ld r24,X+
 3790 0f4c 9C91      		ld r25,X
 3791 0f4e 1597      		sbiw r26,4+1
 3792 0f50 E817      		cp r30,r24
 3793 0f52 F907      		cpc r31,r25
 3794 0f54 01F4      		brne .L201
 3795               	.LVL245:
 3796               	.LM500:
 3797 0f56 1296      		adiw r26,2
 3798 0f58 8D91      		ld r24,X+
 3799 0f5a 9C91      		ld r25,X
 3800 0f5c 1397      		sbiw r26,2+1
 3801 0f5e 1796      		adiw r26,6+1
 3802 0f60 9C93      		st X,r25
 3803 0f62 8E93      		st -X,r24
 3804 0f64 1697      		sbiw r26,6
 3805               	.L201:
 3806               	.LM501:
 3807 0f66 1C96      		adiw r26,12
 3808 0f68 8D91      		ld r24,X+
 3809 0f6a 9C91      		ld r25,X
 3810 0f6c 1D97      		sbiw r26,12+1
 3811 0f6e 0196      		adiw r24,1
 3812 0f70 1D96      		adiw r26,12+1
 3813 0f72 9C93      		st X,r25
 3814 0f74 8E93      		st -X,r24
 3815 0f76 1C97      		sbiw r26,12
 3816               	.LM502:
 3817               	/* #APP */
 3818               	 ;  628 "E:\ELE542-Lab\uCOSII\uC-OSII\SOFTWARE\uCOS-II\SOURCE/os_q.c" 1
 3819 0f78 0F91      		POP  R16
 3820               	 ;  0 "" 2
 3821               	 ;  628 "E:\ELE542-Lab\uCOSII\uC-OSII\SOFTWARE\uCOS-II\SOURCE/os_q.c" 1
 3822 0f7a 0FBF      		OUT  0x3F,R16
 3823               	 ;  0 "" 2
 3824               	 ;  628 "E:\ELE542-Lab\uCOSII\uC-OSII\SOFTWARE\uCOS-II\SOURCE/os_q.c" 1
 3825 0f7c 0F91      		POP  R16
 3826               	 ;  0 "" 2
 3827               	.LVL246:
 3828               	/* #NOAPP */
 3829               	.L205:
 3830 0f7e 80E0      		ldi r24,lo8(0)
 3831               	.L192:
 3832               	/* epilogue start */
 3833               	.LM503:
 3834 0f80 DF91      		pop r29
 3835 0f82 CF91      		pop r28
 3836               	.LVL247:
 3837 0f84 1F91      		pop r17
 3838 0f86 0F91      		pop r16
 3839               	.LVL248:
 3840 0f88 0895      		ret
 3841               	.LFE46:
 3843               	.global	OSQPost
 3845               	OSQPost:
 3846               	.LFB45:
 3847               	.LM504:
 3848               	.LVL249:
 3849               	/* prologue: function */
 3850               	/* frame size = 0 */
 3851 0f8a FC01      		movw r30,r24
 3852               	.LM505:
 3853 0f8c 8081      		ld r24,Z
 3854               	.LVL250:
 3855 0f8e 8230      		cpi r24,lo8(2)
 3856 0f90 01F0      		breq .L208
 3857 0f92 81E0      		ldi r24,lo8(1)
 3858 0f94 0895      		ret
 3859               	.L208:
 3860               	.LM506:
 3861               	/* #APP */
 3862               	 ;  451 "E:\ELE542-Lab\uCOSII\uC-OSII\SOFTWARE\uCOS-II\SOURCE/os_q.c" 1
 3863 0f96 0F93      		PUSH  R16
 3864               	 ;  0 "" 2
 3865               	 ;  451 "E:\ELE542-Lab\uCOSII\uC-OSII\SOFTWARE\uCOS-II\SOURCE/os_q.c" 1
 3866 0f98 0FB7      		IN    R16,0x3F
 3867               	 ;  0 "" 2
 3868               	 ;  451 "E:\ELE542-Lab\uCOSII\uC-OSII\SOFTWARE\uCOS-II\SOURCE/os_q.c" 1
 3869 0f9a 0F93      		PUSH  R16
 3870               	 ;  0 "" 2
 3871               	 ;  451 "E:\ELE542-Lab\uCOSII\uC-OSII\SOFTWARE\uCOS-II\SOURCE/os_q.c" 1
 3872 0f9c F894      		cli
 3873               	 ;  0 "" 2
 3874               	.LM507:
 3875               	/* #NOAPP */
 3876 0f9e 8181      		ldd r24,Z+1
 3877 0fa0 8823      		tst r24
 3878 0fa2 01F0      		breq .L210
 3879               	.LM508:
 3880 0fa4 CF01      		movw r24,r30
 3881 0fa6 44E0      		ldi r20,lo8(4)
 3882 0fa8 0E94 0000 		call OS_EventTaskRdy
 3883               	.LVL251:
 3884               	.LM509:
 3885               	/* #APP */
 3886               	 ;  454 "E:\ELE542-Lab\uCOSII\uC-OSII\SOFTWARE\uCOS-II\SOURCE/os_q.c" 1
 3887 0fac 0F91      		POP  R16
 3888               	 ;  0 "" 2
 3889               	 ;  454 "E:\ELE542-Lab\uCOSII\uC-OSII\SOFTWARE\uCOS-II\SOURCE/os_q.c" 1
 3890 0fae 0FBF      		OUT  0x3F,R16
 3891               	 ;  0 "" 2
 3892               	 ;  454 "E:\ELE542-Lab\uCOSII\uC-OSII\SOFTWARE\uCOS-II\SOURCE/os_q.c" 1
 3893 0fb0 0F91      		POP  R16
 3894               	 ;  0 "" 2
 3895               	.LM510:
 3896               	/* #NOAPP */
 3897 0fb2 0E94 0000 		call OS_Sched
 3898 0fb6 80E0      		ldi r24,lo8(0)
 3899 0fb8 0895      		ret
 3900               	.LVL252:
 3901               	.L210:
 3902               	.LM511:
 3903 0fba A481      		ldd r26,Z+4
 3904 0fbc B581      		ldd r27,Z+5
 3905               	.LVL253:
 3906               	.LM512:
 3907 0fbe 1C96      		adiw r26,12
 3908 0fc0 2D91      		ld r18,X+
 3909 0fc2 3C91      		ld r19,X
 3910 0fc4 1D97      		sbiw r26,12+1
 3911 0fc6 1A96      		adiw r26,10
 3912 0fc8 8D91      		ld r24,X+
 3913 0fca 9C91      		ld r25,X
 3914 0fcc 1B97      		sbiw r26,10+1
 3915 0fce 2817      		cp r18,r24
 3916 0fd0 3907      		cpc r19,r25
 3917 0fd2 00F0      		brlo .L211
 3918               	.LM513:
 3919               	/* #APP */
 3920               	 ;  460 "E:\ELE542-Lab\uCOSII\uC-OSII\SOFTWARE\uCOS-II\SOURCE/os_q.c" 1
 3921 0fd4 0F91      		POP  R16
 3922               	 ;  0 "" 2
 3923               	 ;  460 "E:\ELE542-Lab\uCOSII\uC-OSII\SOFTWARE\uCOS-II\SOURCE/os_q.c" 1
 3924 0fd6 0FBF      		OUT  0x3F,R16
 3925               	 ;  0 "" 2
 3926               	 ;  460 "E:\ELE542-Lab\uCOSII\uC-OSII\SOFTWARE\uCOS-II\SOURCE/os_q.c" 1
 3927 0fd8 0F91      		POP  R16
 3928               	 ;  0 "" 2
 3929               	/* #NOAPP */
 3930 0fda 8EE1      		ldi r24,lo8(30)
 3931 0fdc 0895      		ret
 3932               	.L211:
 3933               	.LM514:
 3934 0fde 1696      		adiw r26,6
 3935 0fe0 ED91      		ld r30,X+
 3936 0fe2 FC91      		ld r31,X
 3937 0fe4 1797      		sbiw r26,6+1
 3938               	.LVL254:
 3939 0fe6 6193      		st Z+,r22
 3940 0fe8 7193      		st Z+,r23
 3941 0fea 1796      		adiw r26,6+1
 3942 0fec FC93      		st X,r31
 3943 0fee EE93      		st -X,r30
 3944 0ff0 1697      		sbiw r26,6
 3945               	.LM515:
 3946 0ff2 2F5F      		subi r18,lo8(-(1))
 3947 0ff4 3F4F      		sbci r19,hi8(-(1))
 3948 0ff6 1D96      		adiw r26,12+1
 3949 0ff8 3C93      		st X,r19
 3950 0ffa 2E93      		st -X,r18
 3951 0ffc 1C97      		sbiw r26,12
 3952               	.LM516:
 3953 0ffe 1496      		adiw r26,4
 3954 1000 8D91      		ld r24,X+
 3955 1002 9C91      		ld r25,X
 3956 1004 1597      		sbiw r26,4+1
 3957 1006 E817      		cp r30,r24
 3958 1008 F907      		cpc r31,r25
 3959 100a 01F4      		brne .L212
 3960               	.LM517:
 3961 100c 1296      		adiw r26,2
 3962 100e 8D91      		ld r24,X+
 3963 1010 9C91      		ld r25,X
 3964 1012 1397      		sbiw r26,2+1
 3965 1014 1796      		adiw r26,6+1
 3966 1016 9C93      		st X,r25
 3967 1018 8E93      		st -X,r24
 3968 101a 1697      		sbiw r26,6
 3969               	.L212:
 3970               	.LM518:
 3971               	/* #APP */
 3972               	 ;  468 "E:\ELE542-Lab\uCOSII\uC-OSII\SOFTWARE\uCOS-II\SOURCE/os_q.c" 1
 3973 101c 0F91      		POP  R16
 3974               	 ;  0 "" 2
 3975               	 ;  468 "E:\ELE542-Lab\uCOSII\uC-OSII\SOFTWARE\uCOS-II\SOURCE/os_q.c" 1
 3976 101e 0FBF      		OUT  0x3F,R16
 3977               	 ;  0 "" 2
 3978               	 ;  468 "E:\ELE542-Lab\uCOSII\uC-OSII\SOFTWARE\uCOS-II\SOURCE/os_q.c" 1
 3979 1020 0F91      		POP  R16
 3980               	 ;  0 "" 2
 3981               	/* #NOAPP */
 3982 1022 80E0      		ldi r24,lo8(0)
 3983               	.LM519:
 3984 1024 0895      		ret
 3985               	.LFE45:
 3987               	.global	OSQPend
 3989               	OSQPend:
 3990               	.LFB44:
 3991               	.LM520:
 3992               	.LVL255:
 3993 1026 0F93      		push r16
 3994 1028 1F93      		push r17
 3995 102a CF93      		push r28
 3996 102c DF93      		push r29
 3997               	/* prologue: function */
 3998               	/* frame size = 0 */
 3999 102e EC01      		movw r28,r24
 4000 1030 8A01      		movw r16,r20
 4001               	.LM521:
 4002 1032 8091 0000 		lds r24,OSIntNesting
 4003               	.LVL256:
 4004 1036 8823      		tst r24
 4005 1038 01F0      		breq .L215
 4006               	.LVL257:
 4007               	.LM522:
 4008 103a 82E0      		ldi r24,lo8(2)
 4009 103c 00C0      		rjmp .L223
 4010               	.L215:
 4011               	.LM523:
 4012               	/* #APP */
 4013               	 ;  382 "E:\ELE542-Lab\uCOSII\uC-OSII\SOFTWARE\uCOS-II\SOURCE/os_q.c" 1
 4014 103e 0F93      		PUSH  R16
 4015               	 ;  0 "" 2
 4016               	 ;  382 "E:\ELE542-Lab\uCOSII\uC-OSII\SOFTWARE\uCOS-II\SOURCE/os_q.c" 1
 4017 1040 0FB7      		IN    R16,0x3F
 4018               	 ;  0 "" 2
 4019               	 ;  382 "E:\ELE542-Lab\uCOSII\uC-OSII\SOFTWARE\uCOS-II\SOURCE/os_q.c" 1
 4020 1042 0F93      		PUSH  R16
 4021               	 ;  0 "" 2
 4022               	 ;  382 "E:\ELE542-Lab\uCOSII\uC-OSII\SOFTWARE\uCOS-II\SOURCE/os_q.c" 1
 4023 1044 F894      		cli
 4024               	 ;  0 "" 2
 4025               	.LM524:
 4026               	/* #NOAPP */
 4027 1046 AC81      		ldd r26,Y+4
 4028 1048 BD81      		ldd r27,Y+5
 4029               	.LVL258:
 4030               	.LM525:
 4031 104a 1C96      		adiw r26,12
 4032 104c 8D91      		ld r24,X+
 4033 104e 9C91      		ld r25,X
 4034 1050 1D97      		sbiw r26,12+1
 4035 1052 0097      		sbiw r24,0
 4036 1054 01F0      		breq .L217
 4037               	.LM526:
 4038 1056 1896      		adiw r26,8
 4039 1058 ED91      		ld r30,X+
 4040 105a FC91      		ld r31,X
 4041 105c 1997      		sbiw r26,8+1
 4042 105e 2191      		ld r18,Z+
 4043 1060 3191      		ld r19,Z+
 4044               	.LVL259:
 4045 1062 1996      		adiw r26,8+1
 4046 1064 FC93      		st X,r31
 4047 1066 EE93      		st -X,r30
 4048 1068 1897      		sbiw r26,8
 4049               	.LM527:
 4050 106a 0197      		sbiw r24,1
 4051 106c 1D96      		adiw r26,12+1
 4052 106e 9C93      		st X,r25
 4053 1070 8E93      		st -X,r24
 4054 1072 1C97      		sbiw r26,12
 4055               	.LM528:
 4056 1074 1496      		adiw r26,4
 4057 1076 8D91      		ld r24,X+
 4058 1078 9C91      		ld r25,X
 4059 107a 1597      		sbiw r26,4+1
 4060 107c E817      		cp r30,r24
 4061 107e F907      		cpc r31,r25
 4062 1080 01F4      		brne .L218
 4063               	.LM529:
 4064 1082 1296      		adiw r26,2
 4065 1084 8D91      		ld r24,X+
 4066 1086 9C91      		ld r25,X
 4067 1088 1397      		sbiw r26,2+1
 4068 108a 1996      		adiw r26,8+1
 4069 108c 9C93      		st X,r25
 4070 108e 8E93      		st -X,r24
 4071 1090 1897      		sbiw r26,8
 4072               	.L218:
 4073               	.LM530:
 4074               	/* #APP */
 4075               	 ;  390 "E:\ELE542-Lab\uCOSII\uC-OSII\SOFTWARE\uCOS-II\SOURCE/os_q.c" 1
 4076 1092 0F91      		POP  R16
 4077               	 ;  0 "" 2
 4078               	 ;  390 "E:\ELE542-Lab\uCOSII\uC-OSII\SOFTWARE\uCOS-II\SOURCE/os_q.c" 1
 4079 1094 0FBF      		OUT  0x3F,R16
 4080               	 ;  0 "" 2
 4081               	 ;  390 "E:\ELE542-Lab\uCOSII\uC-OSII\SOFTWARE\uCOS-II\SOURCE/os_q.c" 1
 4082 1096 0F91      		POP  R16
 4083               	 ;  0 "" 2
 4084               	/* #NOAPP */
 4085 1098 00C0      		rjmp .L224
 4086               	.LVL260:
 4087               	.L217:
 4088               	.LM531:
 4089 109a A091 0000 		lds r26,OSTCBCur
 4090 109e B091 0000 		lds r27,(OSTCBCur)+1
 4091               	.LVL261:
 4092 10a2 1D96      		adiw r26,13
 4093 10a4 8C91      		ld r24,X
 4094 10a6 1D97      		sbiw r26,13
 4095 10a8 8460      		ori r24,lo8(4)
 4096 10aa 1D96      		adiw r26,13
 4097 10ac 8C93      		st X,r24
 4098 10ae 1D97      		sbiw r26,13
 4099               	.LM532:
 4100 10b0 1C96      		adiw r26,11+1
 4101 10b2 7C93      		st X,r23
 4102 10b4 6E93      		st -X,r22
 4103 10b6 1B97      		sbiw r26,11
 4104               	.LBB62:
 4105               	.LBB63:
 4106               	.LM533:
 4107 10b8 1796      		adiw r26,6+1
 4108 10ba DC93      		st X,r29
 4109 10bc CE93      		st -X,r28
 4110 10be 1697      		sbiw r26,6
 4111               	.LM534:
 4112 10c0 5096      		adiw r26,16
 4113 10c2 8C91      		ld r24,X
 4114 10c4 5097      		sbiw r26,16
 4115 10c6 282F      		mov r18,r24
 4116 10c8 30E0      		ldi r19,lo8(0)
 4117 10ca 5196      		adiw r26,17
 4118 10cc 4C91      		ld r20,X
 4119 10ce 5197      		sbiw r26,17
 4120 10d0 F901      		movw r30,r18
 4121 10d2 E050      		subi r30,lo8(-(OSRdyTbl))
 4122 10d4 F040      		sbci r31,hi8(-(OSRdyTbl))
 4123 10d6 842F      		mov r24,r20
 4124 10d8 8095      		com r24
 4125 10da 9081      		ld r25,Z
 4126 10dc 8923      		and r24,r25
 4127 10de 8083      		st Z,r24
 4128               	.LM535:
 4129 10e0 8823      		tst r24
 4130 10e2 01F4      		brne .L219
 4131               	.LM536:
 4132 10e4 5296      		adiw r26,18
 4133 10e6 9C91      		ld r25,X
 4134 10e8 5297      		sbiw r26,18
 4135 10ea 9095      		com r25
 4136 10ec 8091 0000 		lds r24,OSRdyGrp
 4137 10f0 8923      		and r24,r25
 4138 10f2 8093 0000 		sts OSRdyGrp,r24
 4139               	.L219:
 4140               	.LM537:
 4141 10f6 FE01      		movw r30,r28
 4142 10f8 E20F      		add r30,r18
 4143 10fa F31F      		adc r31,r19
 4144 10fc 8681      		ldd r24,Z+6
 4145 10fe 842B      		or r24,r20
 4146 1100 8683      		std Z+6,r24
 4147               	.LM538:
 4148 1102 8981      		ldd r24,Y+1
 4149 1104 5296      		adiw r26,18
 4150 1106 9C91      		ld r25,X
 4151 1108 892B      		or r24,r25
 4152 110a 8983      		std Y+1,r24
 4153               	.LBE63:
 4154               	.LBE62:
 4155               	.LM539:
 4156               	/* #APP */
 4157               	 ;  397 "E:\ELE542-Lab\uCOSII\uC-OSII\SOFTWARE\uCOS-II\SOURCE/os_q.c" 1
 4158 110c 0F91      		POP  R16
 4159               	 ;  0 "" 2
 4160               	 ;  397 "E:\ELE542-Lab\uCOSII\uC-OSII\SOFTWARE\uCOS-II\SOURCE/os_q.c" 1
 4161 110e 0FBF      		OUT  0x3F,R16
 4162               	 ;  0 "" 2
 4163               	 ;  397 "E:\ELE542-Lab\uCOSII\uC-OSII\SOFTWARE\uCOS-II\SOURCE/os_q.c" 1
 4164 1110 0F91      		POP  R16
 4165               	 ;  0 "" 2
 4166               	.LM540:
 4167               	/* #NOAPP */
 4168 1112 0E94 0000 		call OS_Sched
 4169               	.LVL262:
 4170               	.LM541:
 4171               	/* #APP */
 4172               	 ;  399 "E:\ELE542-Lab\uCOSII\uC-OSII\SOFTWARE\uCOS-II\SOURCE/os_q.c" 1
 4173 1116 0F93      		PUSH  R16
 4174               	 ;  0 "" 2
 4175               	 ;  399 "E:\ELE542-Lab\uCOSII\uC-OSII\SOFTWARE\uCOS-II\SOURCE/os_q.c" 1
 4176 1118 0FB7      		IN    R16,0x3F
 4177               	 ;  0 "" 2
 4178               	 ;  399 "E:\ELE542-Lab\uCOSII\uC-OSII\SOFTWARE\uCOS-II\SOURCE/os_q.c" 1
 4179 111a 0F93      		PUSH  R16
 4180               	 ;  0 "" 2
 4181               	 ;  399 "E:\ELE542-Lab\uCOSII\uC-OSII\SOFTWARE\uCOS-II\SOURCE/os_q.c" 1
 4182 111c F894      		cli
 4183               	 ;  0 "" 2
 4184               	.LM542:
 4185               	/* #NOAPP */
 4186 111e A091 0000 		lds r26,OSTCBCur
 4187 1122 B091 0000 		lds r27,(OSTCBCur)+1
 4188 1126 1D96      		adiw r26,13
 4189 1128 8C91      		ld r24,X
 4190 112a 1D97      		sbiw r26,13
 4191 112c 82FF      		sbrs r24,2
 4192 112e 00C0      		rjmp .L220
 4193               	.LBB64:
 4194               	.LBB65:
 4195               	.LM543:
 4196 1130 5096      		adiw r26,16
 4197 1132 8C91      		ld r24,X
 4198 1134 5097      		sbiw r26,16
 4199 1136 FE01      		movw r30,r28
 4200 1138 E80F      		add r30,r24
 4201 113a F11D      		adc r31,__zero_reg__
 4202 113c 5196      		adiw r26,17
 4203 113e 8C91      		ld r24,X
 4204 1140 5197      		sbiw r26,17
 4205 1142 8095      		com r24
 4206 1144 9681      		ldd r25,Z+6
 4207 1146 8923      		and r24,r25
 4208 1148 8683      		std Z+6,r24
 4209               	.LM544:
 4210 114a 8823      		tst r24
 4211 114c 01F4      		brne .L221
 4212               	.LM545:
 4213 114e 5296      		adiw r26,18
 4214 1150 9C91      		ld r25,X
 4215 1152 5297      		sbiw r26,18
 4216 1154 9095      		com r25
 4217 1156 8981      		ldd r24,Y+1
 4218 1158 8923      		and r24,r25
 4219 115a 8983      		std Y+1,r24
 4220               	.L221:
 4221               	.LM546:
 4222 115c 1D96      		adiw r26,13
 4223 115e 1C92      		st X,__zero_reg__
 4224 1160 1D97      		sbiw r26,13
 4225               	.LM547:
 4226 1162 1796      		adiw r26,6+1
 4227 1164 1C92      		st X,__zero_reg__
 4228 1166 1E92      		st -X,__zero_reg__
 4229 1168 1697      		sbiw r26,6
 4230               	.LBE65:
 4231               	.LBE64:
 4232               	.LM548:
 4233               	/* #APP */
 4234               	 ;  402 "E:\ELE542-Lab\uCOSII\uC-OSII\SOFTWARE\uCOS-II\SOURCE/os_q.c" 1
 4235 116a 0F91      		POP  R16
 4236               	 ;  0 "" 2
 4237               	 ;  402 "E:\ELE542-Lab\uCOSII\uC-OSII\SOFTWARE\uCOS-II\SOURCE/os_q.c" 1
 4238 116c 0FBF      		OUT  0x3F,R16
 4239               	 ;  0 "" 2
 4240               	 ;  402 "E:\ELE542-Lab\uCOSII\uC-OSII\SOFTWARE\uCOS-II\SOURCE/os_q.c" 1
 4241 116e 0F91      		POP  R16
 4242               	 ;  0 "" 2
 4243               	.LM549:
 4244               	/* #NOAPP */
 4245 1170 8AE0      		ldi r24,lo8(10)
 4246               	.LVL263:
 4247               	.L223:
 4248 1172 F801      		movw r30,r16
 4249 1174 8083      		st Z,r24
 4250 1176 20E0      		ldi r18,lo8(0)
 4251 1178 30E0      		ldi r19,hi8(0)
 4252               	.LVL264:
 4253 117a 00C0      		rjmp .L216
 4254               	.LVL265:
 4255               	.L220:
 4256               	.LM550:
 4257 117c 1896      		adiw r26,8
 4258 117e 2D91      		ld r18,X+
 4259 1180 3C91      		ld r19,X
 4260 1182 1997      		sbiw r26,8+1
 4261               	.LVL266:
 4262               	.LM551:
 4263 1184 1996      		adiw r26,8+1
 4264 1186 1C92      		st X,__zero_reg__
 4265 1188 1E92      		st -X,__zero_reg__
 4266 118a 1897      		sbiw r26,8
 4267               	.LM552:
 4268 118c 1D96      		adiw r26,13
 4269 118e 1C92      		st X,__zero_reg__
 4270 1190 1D97      		sbiw r26,13
 4271               	.LM553:
 4272 1192 1796      		adiw r26,6+1
 4273 1194 1C92      		st X,__zero_reg__
 4274 1196 1E92      		st -X,__zero_reg__
 4275 1198 1697      		sbiw r26,6
 4276               	.LM554:
 4277               	/* #APP */
 4278               	 ;  410 "E:\ELE542-Lab\uCOSII\uC-OSII\SOFTWARE\uCOS-II\SOURCE/os_q.c" 1
 4279 119a 0F91      		POP  R16
 4280               	 ;  0 "" 2
 4281               	 ;  410 "E:\ELE542-Lab\uCOSII\uC-OSII\SOFTWARE\uCOS-II\SOURCE/os_q.c" 1
 4282 119c 0FBF      		OUT  0x3F,R16
 4283               	 ;  0 "" 2
 4284               	 ;  410 "E:\ELE542-Lab\uCOSII\uC-OSII\SOFTWARE\uCOS-II\SOURCE/os_q.c" 1
 4285 119e 0F91      		POP  R16
 4286               	 ;  0 "" 2
 4287               	.LVL267:
 4288               	/* #NOAPP */
 4289               	.L224:
 4290               	.LM555:
 4291 11a0 F801      		movw r30,r16
 4292 11a2 1082      		st Z,__zero_reg__
 4293               	.L216:
 4294               	.LM556:
 4295 11a4 C901      		movw r24,r18
 4296               	.LVL268:
 4297               	/* epilogue start */
 4298 11a6 DF91      		pop r29
 4299 11a8 CF91      		pop r28
 4300               	.LVL269:
 4301 11aa 1F91      		pop r17
 4302 11ac 0F91      		pop r16
 4303               	.LVL270:
 4304 11ae 0895      		ret
 4305               	.LFE44:
 4307               	.global	OSMutexPost
 4309               	OSMutexPost:
 4310               	.LFB39:
 4311               	.LM557:
 4312               	.LVL271:
 4313 11b0 CF93      		push r28
 4314 11b2 DF93      		push r29
 4315               	/* prologue: function */
 4316               	/* frame size = 0 */
 4317 11b4 EC01      		movw r28,r24
 4318               	.LM558:
 4319 11b6 8091 0000 		lds r24,OSIntNesting
 4320               	.LVL272:
 4321 11ba 8823      		tst r24
 4322 11bc 01F0      		breq .L226
 4323 11be 85E0      		ldi r24,lo8(5)
 4324 11c0 00C0      		rjmp .L227
 4325               	.L226:
 4326               	.LM559:
 4327 11c2 8881      		ld r24,Y
 4328 11c4 8430      		cpi r24,lo8(4)
 4329 11c6 01F0      		breq .L228
 4330 11c8 81E0      		ldi r24,lo8(1)
 4331 11ca 00C0      		rjmp .L227
 4332               	.L228:
 4333               	.LM560:
 4334               	/* #APP */
 4335               	 ;  443 "E:\ELE542-Lab\uCOSII\uC-OSII\SOFTWARE\uCOS-II\SOURCE/os_mutex.c" 1
 4336 11cc 0F93      		PUSH  R16
 4337               	 ;  0 "" 2
 4338               	 ;  443 "E:\ELE542-Lab\uCOSII\uC-OSII\SOFTWARE\uCOS-II\SOURCE/os_mutex.c" 1
 4339 11ce 0FB7      		IN    R16,0x3F
 4340               	 ;  0 "" 2
 4341               	 ;  443 "E:\ELE542-Lab\uCOSII\uC-OSII\SOFTWARE\uCOS-II\SOURCE/os_mutex.c" 1
 4342 11d0 0F93      		PUSH  R16
 4343               	 ;  0 "" 2
 4344               	 ;  443 "E:\ELE542-Lab\uCOSII\uC-OSII\SOFTWARE\uCOS-II\SOURCE/os_mutex.c" 1
 4345 11d2 F894      		cli
 4346               	 ;  0 "" 2
 4347               	.LM561:
 4348               	/* #NOAPP */
 4349 11d4 3A81      		ldd r19,Y+2
 4350 11d6 4B81      		ldd r20,Y+3
 4351               	.LM562:
 4352 11d8 A091 0000 		lds r26,OSTCBCur
 4353 11dc B091 0000 		lds r27,(OSTCBCur)+1
 4354 11e0 8C81      		ldd r24,Y+4
 4355 11e2 9D81      		ldd r25,Y+5
 4356 11e4 A817      		cp r26,r24
 4357 11e6 B907      		cpc r27,r25
 4358 11e8 01F0      		breq .L229
 4359               	.LM563:
 4360               	/* #APP */
 4361               	 ;  447 "E:\ELE542-Lab\uCOSII\uC-OSII\SOFTWARE\uCOS-II\SOURCE/os_mutex.c" 1
 4362 11ea 0F91      		POP  R16
 4363               	 ;  0 "" 2
 4364               	 ;  447 "E:\ELE542-Lab\uCOSII\uC-OSII\SOFTWARE\uCOS-II\SOURCE/os_mutex.c" 1
 4365 11ec 0FBF      		OUT  0x3F,R16
 4366               	 ;  0 "" 2
 4367               	 ;  447 "E:\ELE542-Lab\uCOSII\uC-OSII\SOFTWARE\uCOS-II\SOURCE/os_mutex.c" 1
 4368 11ee 0F91      		POP  R16
 4369               	 ;  0 "" 2
 4370               	/* #NOAPP */
 4371 11f0 88E7      		ldi r24,lo8(120)
 4372 11f2 00C0      		rjmp .L227
 4373               	.L229:
 4374               	.LM564:
 4375 11f4 1E96      		adiw r26,14
 4376 11f6 8C91      		ld r24,X
 4377 11f8 1E97      		sbiw r26,14
 4378 11fa 8417      		cp r24,r20
 4379 11fc 01F0      		breq .+2
 4380 11fe 00C0      		rjmp .L230
 4381               	.LM565:
 4382 1200 5096      		adiw r26,16
 4383 1202 EC91      		ld r30,X
 4384 1204 5097      		sbiw r26,16
 4385 1206 F0E0      		ldi r31,lo8(0)
 4386 1208 E050      		subi r30,lo8(-(OSRdyTbl))
 4387 120a F040      		sbci r31,hi8(-(OSRdyTbl))
 4388 120c 5196      		adiw r26,17
 4389 120e 8C91      		ld r24,X
 4390 1210 5197      		sbiw r26,17
 4391 1212 8095      		com r24
 4392 1214 9081      		ld r25,Z
 4393 1216 8923      		and r24,r25
 4394 1218 8083      		st Z,r24
 4395 121a 8823      		tst r24
 4396 121c 01F4      		brne .L231
 4397               	.LM566:
 4398 121e 5296      		adiw r26,18
 4399 1220 9C91      		ld r25,X
 4400 1222 5297      		sbiw r26,18
 4401 1224 9095      		com r25
 4402 1226 8091 0000 		lds r24,OSRdyGrp
 4403 122a 8923      		and r24,r25
 4404 122c 8093 0000 		sts OSRdyGrp,r24
 4405               	.L231:
 4406               	.LM567:
 4407 1230 1E96      		adiw r26,14
 4408 1232 3C93      		st X,r19
 4409 1234 1E97      		sbiw r26,14
 4410               	.LM568:
 4411 1236 E32F      		mov r30,r19
 4412 1238 E695      		lsr r30
 4413 123a E695      		lsr r30
 4414 123c E695      		lsr r30
 4415 123e 5096      		adiw r26,16
 4416 1240 EC93      		st X,r30
 4417 1242 5097      		sbiw r26,16
 4418               	.LM569:
 4419 1244 F0E0      		ldi r31,lo8(0)
 4420 1246 E050      		subi r30,lo8(-(OSMapTbl))
 4421 1248 F040      		sbci r31,hi8(-(OSMapTbl))
 4422 124a 2081      		ld r18,Z
 4423 124c 5296      		adiw r26,18
 4424 124e 2C93      		st X,r18
 4425 1250 5297      		sbiw r26,18
 4426               	.LM570:
 4427 1252 E32F      		mov r30,r19
 4428 1254 E770      		andi r30,lo8(7)
 4429 1256 1F96      		adiw r26,15
 4430 1258 EC93      		st X,r30
 4431 125a 1F97      		sbiw r26,15
 4432               	.LM571:
 4433 125c F0E0      		ldi r31,lo8(0)
 4434 125e E050      		subi r30,lo8(-(OSMapTbl))
 4435 1260 F040      		sbci r31,hi8(-(OSMapTbl))
 4436 1262 9081      		ld r25,Z
 4437 1264 5196      		adiw r26,17
 4438 1266 9C93      		st X,r25
 4439 1268 5197      		sbiw r26,17
 4440               	.LM572:
 4441 126a 8091 0000 		lds r24,OSRdyGrp
 4442 126e 822B      		or r24,r18
 4443 1270 8093 0000 		sts OSRdyGrp,r24
 4444               	.LM573:
 4445 1274 5096      		adiw r26,16
 4446 1276 EC91      		ld r30,X
 4447 1278 5097      		sbiw r26,16
 4448 127a F0E0      		ldi r31,lo8(0)
 4449 127c E050      		subi r30,lo8(-(OSRdyTbl))
 4450 127e F040      		sbci r31,hi8(-(OSRdyTbl))
 4451 1280 8081      		ld r24,Z
 4452 1282 982B      		or r25,r24
 4453 1284 9083      		st Z,r25
 4454               	.LM574:
 4455 1286 E32F      		mov r30,r19
 4456               	.LVL273:
 4457 1288 F0E0      		ldi r31,lo8(0)
 4458               	.LVL274:
 4459 128a EE0F      		lsl r30
 4460 128c FF1F      		rol r31
 4461               	.LVL275:
 4462 128e E050      		subi r30,lo8(-(OSTCBPrioTbl))
 4463 1290 F040      		sbci r31,hi8(-(OSTCBPrioTbl))
 4464               	.LVL276:
 4465 1292 B183      		std Z+1,r27
 4466 1294 A083      		st Z,r26
 4467               	.L230:
 4468               	.LM575:
 4469 1296 E42F      		mov r30,r20
 4470               	.LVL277:
 4471 1298 F0E0      		ldi r31,lo8(0)
 4472               	.LVL278:
 4473 129a EE0F      		lsl r30
 4474 129c FF1F      		rol r31
 4475               	.LVL279:
 4476 129e E050      		subi r30,lo8(-(OSTCBPrioTbl))
 4477 12a0 F040      		sbci r31,hi8(-(OSTCBPrioTbl))
 4478               	.LVL280:
 4479 12a2 81E0      		ldi r24,lo8(1)
 4480 12a4 90E0      		ldi r25,hi8(1)
 4481 12a6 9183      		std Z+1,r25
 4482 12a8 8083      		st Z,r24
 4483               	.LM576:
 4484 12aa 8981      		ldd r24,Y+1
 4485 12ac 8823      		tst r24
 4486 12ae 01F0      		breq .L232
 4487               	.LM577:
 4488 12b0 CE01      		movw r24,r28
 4489 12b2 60E0      		ldi r22,lo8(0)
 4490 12b4 70E0      		ldi r23,hi8(0)
 4491 12b6 40E1      		ldi r20,lo8(16)
 4492 12b8 0E94 0000 		call OS_EventTaskRdy
 4493               	.LVL281:
 4494               	.LM578:
 4495 12bc E82F      		mov r30,r24
 4496               	.LVL282:
 4497 12be F0E0      		ldi r31,lo8(0)
 4498               	.LVL283:
 4499 12c0 8A81      		ldd r24,Y+2
 4500 12c2 9B81      		ldd r25,Y+3
 4501 12c4 8070      		andi r24,lo8(-256)
 4502 12c6 8E2B      		or r24,r30
 4503 12c8 9F2B      		or r25,r31
 4504 12ca 9B83      		std Y+3,r25
 4505 12cc 8A83      		std Y+2,r24
 4506               	.LM579:
 4507 12ce EE0F      		lsl r30
 4508 12d0 FF1F      		rol r31
 4509               	.LVL284:
 4510 12d2 E050      		subi r30,lo8(-(OSTCBPrioTbl))
 4511 12d4 F040      		sbci r31,hi8(-(OSTCBPrioTbl))
 4512               	.LVL285:
 4513 12d6 8081      		ld r24,Z
 4514 12d8 9181      		ldd r25,Z+1
 4515 12da 9D83      		std Y+5,r25
 4516 12dc 8C83      		std Y+4,r24
 4517               	.LM580:
 4518               	/* #APP */
 4519               	 ;  472 "E:\ELE542-Lab\uCOSII\uC-OSII\SOFTWARE\uCOS-II\SOURCE/os_mutex.c" 1
 4520 12de 0F91      		POP  R16
 4521               	 ;  0 "" 2
 4522               	 ;  472 "E:\ELE542-Lab\uCOSII\uC-OSII\SOFTWARE\uCOS-II\SOURCE/os_mutex.c" 1
 4523 12e0 0FBF      		OUT  0x3F,R16
 4524               	 ;  0 "" 2
 4525               	 ;  472 "E:\ELE542-Lab\uCOSII\uC-OSII\SOFTWARE\uCOS-II\SOURCE/os_mutex.c" 1
 4526 12e2 0F91      		POP  R16
 4527               	 ;  0 "" 2
 4528               	.LM581:
 4529               	/* #NOAPP */
 4530 12e4 0E94 0000 		call OS_Sched
 4531               	.LVL286:
 4532 12e8 00C0      		rjmp .L234
 4533               	.LVL287:
 4534               	.L232:
 4535               	.LM582:
 4536 12ea 8A81      		ldd r24,Y+2
 4537 12ec 9B81      		ldd r25,Y+3
 4538 12ee 8F6F      		ori r24,lo8(255)
 4539 12f0 9B83      		std Y+3,r25
 4540 12f2 8A83      		std Y+2,r24
 4541               	.LM583:
 4542 12f4 1D82      		std Y+5,__zero_reg__
 4543 12f6 1C82      		std Y+4,__zero_reg__
 4544               	.LM584:
 4545               	/* #APP */
 4546               	 ;  478 "E:\ELE542-Lab\uCOSII\uC-OSII\SOFTWARE\uCOS-II\SOURCE/os_mutex.c" 1
 4547 12f8 0F91      		POP  R16
 4548               	 ;  0 "" 2
 4549               	 ;  478 "E:\ELE542-Lab\uCOSII\uC-OSII\SOFTWARE\uCOS-II\SOURCE/os_mutex.c" 1
 4550 12fa 0FBF      		OUT  0x3F,R16
 4551               	 ;  0 "" 2
 4552               	 ;  478 "E:\ELE542-Lab\uCOSII\uC-OSII\SOFTWARE\uCOS-II\SOURCE/os_mutex.c" 1
 4553 12fc 0F91      		POP  R16
 4554               	 ;  0 "" 2
 4555               	/* #NOAPP */
 4556               	.L234:
 4557 12fe 80E0      		ldi r24,lo8(0)
 4558               	.L227:
 4559               	/* epilogue start */
 4560               	.LM585:
 4561 1300 DF91      		pop r29
 4562 1302 CF91      		pop r28
 4563               	.LVL288:
 4564 1304 0895      		ret
 4565               	.LFE39:
 4567               	.global	OSMutexPend
 4569               	OSMutexPend:
 4570               	.LFB38:
 4571               	.LM586:
 4572               	.LVL289:
 4573 1306 EF92      		push r14
 4574 1308 FF92      		push r15
 4575 130a 0F93      		push r16
 4576 130c 1F93      		push r17
 4577 130e CF93      		push r28
 4578 1310 DF93      		push r29
 4579               	/* prologue: function */
 4580               	/* frame size = 0 */
 4581 1312 8C01      		movw r16,r24
 4582 1314 7A01      		movw r14,r20
 4583               	.LM587:
 4584 1316 8091 0000 		lds r24,OSIntNesting
 4585               	.LVL290:
 4586 131a 8823      		tst r24
 4587 131c 01F0      		breq .L236
 4588               	.LVL291:
 4589               	.LM588:
 4590 131e 82E0      		ldi r24,lo8(2)
 4591 1320 00C0      		rjmp .L253
 4592               	.L236:
 4593               	.LM589:
 4594 1322 F801      		movw r30,r16
 4595 1324 8081      		ld r24,Z
 4596 1326 8430      		cpi r24,lo8(4)
 4597 1328 01F0      		breq .L238
 4598               	.LM590:
 4599 132a 81E0      		ldi r24,lo8(1)
 4600 132c 00C0      		rjmp .L253
 4601               	.L238:
 4602               	.LM591:
 4603               	/* #APP */
 4604               	 ;  343 "E:\ELE542-Lab\uCOSII\uC-OSII\SOFTWARE\uCOS-II\SOURCE/os_mutex.c" 1
 4605 132e 0F93      		PUSH  R16
 4606               	 ;  0 "" 2
 4607               	 ;  343 "E:\ELE542-Lab\uCOSII\uC-OSII\SOFTWARE\uCOS-II\SOURCE/os_mutex.c" 1
 4608 1330 0FB7      		IN    R16,0x3F
 4609               	 ;  0 "" 2
 4610               	 ;  343 "E:\ELE542-Lab\uCOSII\uC-OSII\SOFTWARE\uCOS-II\SOURCE/os_mutex.c" 1
 4611 1332 0F93      		PUSH  R16
 4612               	 ;  0 "" 2
 4613               	 ;  343 "E:\ELE542-Lab\uCOSII\uC-OSII\SOFTWARE\uCOS-II\SOURCE/os_mutex.c" 1
 4614 1334 F894      		cli
 4615               	 ;  0 "" 2
 4616               	.LM592:
 4617               	/* #NOAPP */
 4618 1336 F801      		movw r30,r16
 4619 1338 8281      		ldd r24,Z+2
 4620 133a 9381      		ldd r25,Z+3
 4621 133c 282F      		mov r18,r24
 4622 133e 8F3F      		cpi r24,lo8(-1)
 4623 1340 01F4      		brne .L239
 4624               	.LM593:
 4625 1342 8070      		andi r24,lo8(-256)
 4626 1344 9383      		std Z+3,r25
 4627 1346 8283      		std Z+2,r24
 4628               	.LM594:
 4629 1348 E091 0000 		lds r30,OSTCBCur
 4630 134c F091 0000 		lds r31,(OSTCBCur)+1
 4631 1350 2685      		ldd r18,Z+14
 4632 1352 30E0      		ldi r19,lo8(0)
 4633 1354 282B      		or r18,r24
 4634 1356 392B      		or r19,r25
 4635 1358 D801      		movw r26,r16
 4636 135a 1396      		adiw r26,2+1
 4637 135c 3C93      		st X,r19
 4638 135e 2E93      		st -X,r18
 4639 1360 1297      		sbiw r26,2
 4640               	.LM595:
 4641 1362 1596      		adiw r26,4+1
 4642 1364 FC93      		st X,r31
 4643 1366 EE93      		st -X,r30
 4644 1368 1497      		sbiw r26,4
 4645               	.LM596:
 4646               	/* #APP */
 4647               	 ;  348 "E:\ELE542-Lab\uCOSII\uC-OSII\SOFTWARE\uCOS-II\SOURCE/os_mutex.c" 1
 4648 136a 0F91      		POP  R16
 4649               	 ;  0 "" 2
 4650               	 ;  348 "E:\ELE542-Lab\uCOSII\uC-OSII\SOFTWARE\uCOS-II\SOURCE/os_mutex.c" 1
 4651 136c 0FBF      		OUT  0x3F,R16
 4652               	 ;  0 "" 2
 4653               	 ;  348 "E:\ELE542-Lab\uCOSII\uC-OSII\SOFTWARE\uCOS-II\SOURCE/os_mutex.c" 1
 4654 136e 0F91      		POP  R16
 4655               	 ;  0 "" 2
 4656               	/* #NOAPP */
 4657 1370 00C0      		rjmp .L252
 4658               	.L239:
 4659               	.LM597:
 4660 1372 592F      		mov r21,r25
 4661               	.LVL292:
 4662               	.LM598:
 4663 1374 F801      		movw r30,r16
 4664 1376 A481      		ldd r26,Z+4
 4665 1378 B581      		ldd r27,Z+5
 4666               	.LVL293:
 4667               	.LM599:
 4668 137a 1E96      		adiw r26,14
 4669 137c 8C91      		ld r24,X
 4670 137e 1E97      		sbiw r26,14
 4671 1380 8917      		cp r24,r25
 4672 1382 01F4      		brne .+2
 4673 1384 00C0      		rjmp .L240
 4674               	.LVL294:
 4675 1386 E091 0000 		lds r30,OSTCBCur
 4676 138a F091 0000 		lds r31,(OSTCBCur)+1
 4677 138e 8685      		ldd r24,Z+14
 4678 1390 8217      		cp r24,r18
 4679 1392 00F0      		brlo .+2
 4680 1394 00C0      		rjmp .L240
 4681               	.LM600:
 4682 1396 5096      		adiw r26,16
 4683 1398 8C91      		ld r24,X
 4684 139a 5097      		sbiw r26,16
 4685 139c 282F      		mov r18,r24
 4686 139e 30E0      		ldi r19,lo8(0)
 4687 13a0 F901      		movw r30,r18
 4688 13a2 E050      		subi r30,lo8(-(OSRdyTbl))
 4689 13a4 F040      		sbci r31,hi8(-(OSRdyTbl))
 4690 13a6 4081      		ld r20,Z
 4691 13a8 5196      		adiw r26,17
 4692 13aa 9C91      		ld r25,X
 4693 13ac 5197      		sbiw r26,17
 4694               	.LVL295:
 4695 13ae 842F      		mov r24,r20
 4696 13b0 8923      		and r24,r25
 4697 13b2 01F0      		breq .L241
 4698               	.LM601:
 4699 13b4 892F      		mov r24,r25
 4700 13b6 8095      		com r24
 4701 13b8 8423      		and r24,r20
 4702 13ba 8083      		st Z,r24
 4703 13bc 8823      		tst r24
 4704 13be 01F4      		brne .L251
 4705               	.L242:
 4706               	.LM602:
 4707 13c0 5296      		adiw r26,18
 4708 13c2 9C91      		ld r25,X
 4709 13c4 5297      		sbiw r26,18
 4710 13c6 9095      		com r25
 4711 13c8 8091 0000 		lds r24,OSRdyGrp
 4712 13cc 8923      		and r24,r25
 4713 13ce 8093 0000 		sts OSRdyGrp,r24
 4714               	.L251:
 4715 13d2 91E0      		ldi r25,lo8(1)
 4716               	.LVL296:
 4717 13d4 00C0      		rjmp .L243
 4718               	.LVL297:
 4719               	.L241:
 4720               	.LM603:
 4721 13d6 1696      		adiw r26,6
 4722 13d8 CD91      		ld r28,X+
 4723 13da DC91      		ld r29,X
 4724 13dc 1797      		sbiw r26,6+1
 4725               	.LVL298:
 4726               	.LM604:
 4727 13de 2097      		sbiw r28,0
 4728 13e0 01F0      		breq .L244
 4729               	.LM605:
 4730 13e2 FE01      		movw r30,r28
 4731 13e4 E20F      		add r30,r18
 4732 13e6 F31F      		adc r31,r19
 4733 13e8 892F      		mov r24,r25
 4734 13ea 8095      		com r24
 4735 13ec 9681      		ldd r25,Z+6
 4736 13ee 8923      		and r24,r25
 4737 13f0 8683      		std Z+6,r24
 4738 13f2 8823      		tst r24
 4739 13f4 01F4      		brne .L244
 4740               	.LM606:
 4741 13f6 5296      		adiw r26,18
 4742 13f8 9C91      		ld r25,X
 4743 13fa 5297      		sbiw r26,18
 4744 13fc 9095      		com r25
 4745 13fe 8981      		ldd r24,Y+1
 4746 1400 8923      		and r24,r25
 4747 1402 8983      		std Y+1,r24
 4748               	.L244:
 4749 1404 90E0      		ldi r25,lo8(0)
 4750               	.LVL299:
 4751               	.L243:
 4752               	.LM607:
 4753 1406 1E96      		adiw r26,14
 4754 1408 5C93      		st X,r21
 4755 140a 1E97      		sbiw r26,14
 4756               	.LM608:
 4757 140c E52F      		mov r30,r21
 4758 140e E695      		lsr r30
 4759 1410 E695      		lsr r30
 4760 1412 E695      		lsr r30
 4761 1414 5096      		adiw r26,16
 4762 1416 EC93      		st X,r30
 4763 1418 5097      		sbiw r26,16
 4764               	.LM609:
 4765 141a F0E0      		ldi r31,lo8(0)
 4766 141c E050      		subi r30,lo8(-(OSMapTbl))
 4767 141e F040      		sbci r31,hi8(-(OSMapTbl))
 4768 1420 2081      		ld r18,Z
 4769 1422 5296      		adiw r26,18
 4770 1424 2C93      		st X,r18
 4771 1426 5297      		sbiw r26,18
 4772               	.LM610:
 4773 1428 E52F      		mov r30,r21
 4774 142a E770      		andi r30,lo8(7)
 4775 142c 1F96      		adiw r26,15
 4776 142e EC93      		st X,r30
 4777 1430 1F97      		sbiw r26,15
 4778               	.LM611:
 4779 1432 F0E0      		ldi r31,lo8(0)
 4780 1434 E050      		subi r30,lo8(-(OSMapTbl))
 4781 1436 F040      		sbci r31,hi8(-(OSMapTbl))
 4782 1438 8081      		ld r24,Z
 4783 143a 5196      		adiw r26,17
 4784 143c 8C93      		st X,r24
 4785 143e 5197      		sbiw r26,17
 4786               	.LM612:
 4787 1440 9130      		cpi r25,lo8(1)
 4788 1442 01F4      		brne .L245
 4789               	.LM613:
 4790 1444 8091 0000 		lds r24,OSRdyGrp
 4791 1448 822B      		or r24,r18
 4792 144a 8093 0000 		sts OSRdyGrp,r24
 4793               	.LM614:
 4794 144e 5096      		adiw r26,16
 4795 1450 EC91      		ld r30,X
 4796 1452 5097      		sbiw r26,16
 4797 1454 F0E0      		ldi r31,lo8(0)
 4798 1456 E050      		subi r30,lo8(-(OSRdyTbl))
 4799 1458 F040      		sbci r31,hi8(-(OSRdyTbl))
 4800 145a 8081      		ld r24,Z
 4801 145c 5196      		adiw r26,17
 4802 145e 9C91      		ld r25,X
 4803 1460 5197      		sbiw r26,17
 4804               	.LVL300:
 4805 1462 892B      		or r24,r25
 4806 1464 8083      		st Z,r24
 4807 1466 00C0      		rjmp .L246
 4808               	.LVL301:
 4809               	.L245:
 4810               	.LM615:
 4811 1468 1696      		adiw r26,6
 4812 146a ED91      		ld r30,X+
 4813 146c FC91      		ld r31,X
 4814 146e 1797      		sbiw r26,6+1
 4815               	.LVL302:
 4816               	.LM616:
 4817 1470 3097      		sbiw r30,0
 4818 1472 01F0      		breq .L246
 4819               	.LM617:
 4820 1474 8181      		ldd r24,Z+1
 4821 1476 822B      		or r24,r18
 4822 1478 8183      		std Z+1,r24
 4823               	.LM618:
 4824 147a 5096      		adiw r26,16
 4825 147c 8C91      		ld r24,X
 4826 147e 5097      		sbiw r26,16
 4827 1480 E80F      		add r30,r24
 4828 1482 F11D      		adc r31,__zero_reg__
 4829               	.LVL303:
 4830 1484 8681      		ldd r24,Z+6
 4831 1486 5196      		adiw r26,17
 4832 1488 9C91      		ld r25,X
 4833 148a 5197      		sbiw r26,17
 4834               	.LVL304:
 4835 148c 892B      		or r24,r25
 4836 148e 8683      		std Z+6,r24
 4837               	.LVL305:
 4838               	.L246:
 4839               	.LM619:
 4840 1490 E52F      		mov r30,r21
 4841               	.LVL306:
 4842 1492 F0E0      		ldi r31,lo8(0)
 4843               	.LVL307:
 4844 1494 EE0F      		lsl r30
 4845 1496 FF1F      		rol r31
 4846               	.LVL308:
 4847 1498 E050      		subi r30,lo8(-(OSTCBPrioTbl))
 4848 149a F040      		sbci r31,hi8(-(OSTCBPrioTbl))
 4849               	.LVL309:
 4850 149c B183      		std Z+1,r27
 4851 149e A083      		st Z,r26
 4852               	.LVL310:
 4853               	.L240:
 4854               	.LM620:
 4855 14a0 A091 0000 		lds r26,OSTCBCur
 4856 14a4 B091 0000 		lds r27,(OSTCBCur)+1
 4857               	.LVL311:
 4858 14a8 1D96      		adiw r26,13
 4859 14aa 8C91      		ld r24,X
 4860 14ac 1D97      		sbiw r26,13
 4861 14ae 8061      		ori r24,lo8(16)
 4862 14b0 1D96      		adiw r26,13
 4863 14b2 8C93      		st X,r24
 4864 14b4 1D97      		sbiw r26,13
 4865               	.LM621:
 4866 14b6 1C96      		adiw r26,11+1
 4867 14b8 7C93      		st X,r23
 4868 14ba 6E93      		st -X,r22
 4869 14bc 1B97      		sbiw r26,11
 4870               	.LBB66:
 4871               	.LBB67:
 4872               	.LM622:
 4873 14be 1796      		adiw r26,6+1
 4874 14c0 1C93      		st X,r17
 4875 14c2 0E93      		st -X,r16
 4876 14c4 1697      		sbiw r26,6
 4877               	.LM623:
 4878 14c6 5096      		adiw r26,16
 4879 14c8 EC91      		ld r30,X
 4880 14ca 5097      		sbiw r26,16
 4881 14cc F0E0      		ldi r31,lo8(0)
 4882               	.LVL312:
 4883 14ce E050      		subi r30,lo8(-(OSRdyTbl))
 4884 14d0 F040      		sbci r31,hi8(-(OSRdyTbl))
 4885 14d2 5196      		adiw r26,17
 4886 14d4 8C91      		ld r24,X
 4887 14d6 5197      		sbiw r26,17
 4888 14d8 8095      		com r24
 4889 14da 9081      		ld r25,Z
 4890               	.LVL313:
 4891 14dc 8923      		and r24,r25
 4892 14de 8083      		st Z,r24
 4893               	.LM624:
 4894 14e0 8823      		tst r24
 4895 14e2 01F4      		brne .L247
 4896               	.LM625:
 4897 14e4 5296      		adiw r26,18
 4898 14e6 9C91      		ld r25,X
 4899 14e8 5297      		sbiw r26,18
 4900 14ea 9095      		com r25
 4901 14ec 8091 0000 		lds r24,OSRdyGrp
 4902 14f0 8923      		and r24,r25
 4903 14f2 8093 0000 		sts OSRdyGrp,r24
 4904               	.L247:
 4905               	.LM626:
 4906 14f6 5096      		adiw r26,16
 4907 14f8 8C91      		ld r24,X
 4908 14fa 5097      		sbiw r26,16
 4909 14fc F801      		movw r30,r16
 4910 14fe E80F      		add r30,r24
 4911 1500 F11D      		adc r31,__zero_reg__
 4912 1502 8681      		ldd r24,Z+6
 4913 1504 5196      		adiw r26,17
 4914 1506 9C91      		ld r25,X
 4915 1508 5197      		sbiw r26,17
 4916 150a 892B      		or r24,r25
 4917 150c 8683      		std Z+6,r24
 4918               	.LM627:
 4919 150e F801      		movw r30,r16
 4920 1510 8181      		ldd r24,Z+1
 4921 1512 5296      		adiw r26,18
 4922 1514 9C91      		ld r25,X
 4923 1516 892B      		or r24,r25
 4924 1518 8183      		std Z+1,r24
 4925               	.LBE67:
 4926               	.LBE66:
 4927               	.LM628:
 4928               	/* #APP */
 4929               	 ;  392 "E:\ELE542-Lab\uCOSII\uC-OSII\SOFTWARE\uCOS-II\SOURCE/os_mutex.c" 1
 4930 151a 0F91      		POP  R16
 4931               	 ;  0 "" 2
 4932               	 ;  392 "E:\ELE542-Lab\uCOSII\uC-OSII\SOFTWARE\uCOS-II\SOURCE/os_mutex.c" 1
 4933 151c 0FBF      		OUT  0x3F,R16
 4934               	 ;  0 "" 2
 4935               	 ;  392 "E:\ELE542-Lab\uCOSII\uC-OSII\SOFTWARE\uCOS-II\SOURCE/os_mutex.c" 1
 4936 151e 0F91      		POP  R16
 4937               	 ;  0 "" 2
 4938               	.LM629:
 4939               	/* #NOAPP */
 4940 1520 0E94 0000 		call OS_Sched
 4941               	.LVL314:
 4942               	.LM630:
 4943               	/* #APP */
 4944               	 ;  394 "E:\ELE542-Lab\uCOSII\uC-OSII\SOFTWARE\uCOS-II\SOURCE/os_mutex.c" 1
 4945 1524 0F93      		PUSH  R16
 4946               	 ;  0 "" 2
 4947               	 ;  394 "E:\ELE542-Lab\uCOSII\uC-OSII\SOFTWARE\uCOS-II\SOURCE/os_mutex.c" 1
 4948 1526 0FB7      		IN    R16,0x3F
 4949               	 ;  0 "" 2
 4950               	 ;  394 "E:\ELE542-Lab\uCOSII\uC-OSII\SOFTWARE\uCOS-II\SOURCE/os_mutex.c" 1
 4951 1528 0F93      		PUSH  R16
 4952               	 ;  0 "" 2
 4953               	 ;  394 "E:\ELE542-Lab\uCOSII\uC-OSII\SOFTWARE\uCOS-II\SOURCE/os_mutex.c" 1
 4954 152a F894      		cli
 4955               	 ;  0 "" 2
 4956               	.LM631:
 4957               	/* #NOAPP */
 4958 152c A091 0000 		lds r26,OSTCBCur
 4959 1530 B091 0000 		lds r27,(OSTCBCur)+1
 4960 1534 1D96      		adiw r26,13
 4961 1536 8C91      		ld r24,X
 4962 1538 1D97      		sbiw r26,13
 4963 153a 84FF      		sbrs r24,4
 4964 153c 00C0      		rjmp .L248
 4965               	.LBB68:
 4966               	.LBB69:
 4967               	.LM632:
 4968 153e 5096      		adiw r26,16
 4969 1540 8C91      		ld r24,X
 4970 1542 5097      		sbiw r26,16
 4971 1544 F801      		movw r30,r16
 4972 1546 E80F      		add r30,r24
 4973 1548 F11D      		adc r31,__zero_reg__
 4974 154a 5196      		adiw r26,17
 4975 154c 8C91      		ld r24,X
 4976 154e 5197      		sbiw r26,17
 4977 1550 8095      		com r24
 4978 1552 9681      		ldd r25,Z+6
 4979 1554 8923      		and r24,r25
 4980 1556 8683      		std Z+6,r24
 4981               	.LM633:
 4982 1558 8823      		tst r24
 4983 155a 01F4      		brne .L249
 4984               	.LM634:
 4985 155c 5296      		adiw r26,18
 4986 155e 9C91      		ld r25,X
 4987 1560 5297      		sbiw r26,18
 4988 1562 9095      		com r25
 4989 1564 F801      		movw r30,r16
 4990 1566 8181      		ldd r24,Z+1
 4991 1568 8923      		and r24,r25
 4992 156a 8183      		std Z+1,r24
 4993               	.L249:
 4994               	.LM635:
 4995 156c 1D96      		adiw r26,13
 4996 156e 1C92      		st X,__zero_reg__
 4997 1570 1D97      		sbiw r26,13
 4998               	.LM636:
 4999 1572 1796      		adiw r26,6+1
 5000 1574 1C92      		st X,__zero_reg__
 5001 1576 1E92      		st -X,__zero_reg__
 5002 1578 1697      		sbiw r26,6
 5003               	.LBE69:
 5004               	.LBE68:
 5005               	.LM637:
 5006               	/* #APP */
 5007               	 ;  397 "E:\ELE542-Lab\uCOSII\uC-OSII\SOFTWARE\uCOS-II\SOURCE/os_mutex.c" 1
 5008 157a 0F91      		POP  R16
 5009               	 ;  0 "" 2
 5010               	 ;  397 "E:\ELE542-Lab\uCOSII\uC-OSII\SOFTWARE\uCOS-II\SOURCE/os_mutex.c" 1
 5011 157c 0FBF      		OUT  0x3F,R16
 5012               	 ;  0 "" 2
 5013               	 ;  397 "E:\ELE542-Lab\uCOSII\uC-OSII\SOFTWARE\uCOS-II\SOURCE/os_mutex.c" 1
 5014 157e 0F91      		POP  R16
 5015               	 ;  0 "" 2
 5016               	.LM638:
 5017               	/* #NOAPP */
 5018 1580 8AE0      		ldi r24,lo8(10)
 5019               	.LVL315:
 5020               	.L253:
 5021 1582 D701      		movw r26,r14
 5022 1584 8C93      		st X,r24
 5023 1586 00C0      		rjmp .L250
 5024               	.LVL316:
 5025               	.L248:
 5026               	.LM639:
 5027 1588 1796      		adiw r26,6+1
 5028 158a 1C92      		st X,__zero_reg__
 5029 158c 1E92      		st -X,__zero_reg__
 5030 158e 1697      		sbiw r26,6
 5031               	.LM640:
 5032               	/* #APP */
 5033               	 ;  402 "E:\ELE542-Lab\uCOSII\uC-OSII\SOFTWARE\uCOS-II\SOURCE/os_mutex.c" 1
 5034 1590 0F91      		POP  R16
 5035               	 ;  0 "" 2
 5036               	 ;  402 "E:\ELE542-Lab\uCOSII\uC-OSII\SOFTWARE\uCOS-II\SOURCE/os_mutex.c" 1
 5037 1592 0FBF      		OUT  0x3F,R16
 5038               	 ;  0 "" 2
 5039               	 ;  402 "E:\ELE542-Lab\uCOSII\uC-OSII\SOFTWARE\uCOS-II\SOURCE/os_mutex.c" 1
 5040 1594 0F91      		POP  R16
 5041               	 ;  0 "" 2
 5042               	.LVL317:
 5043               	/* #NOAPP */
 5044               	.L252:
 5045               	.LM641:
 5046 1596 F701      		movw r30,r14
 5047 1598 1082      		st Z,__zero_reg__
 5048               	.L250:
 5049               	/* epilogue start */
 5050               	.LM642:
 5051 159a DF91      		pop r29
 5052 159c CF91      		pop r28
 5053               	.LVL318:
 5054 159e 1F91      		pop r17
 5055 15a0 0F91      		pop r16
 5056               	.LVL319:
 5057 15a2 FF90      		pop r15
 5058 15a4 EF90      		pop r14
 5059               	.LVL320:
 5060 15a6 0895      		ret
 5061               	.LFE38:
 5063               	.global	OSMboxPostOpt
 5065               	OSMboxPostOpt:
 5066               	.LFB34:
 5067               	.LM643:
 5068               	.LVL321:
 5069 15a8 0F93      		push r16
 5070 15aa 1F93      		push r17
 5071 15ac CF93      		push r28
 5072 15ae DF93      		push r29
 5073               	/* prologue: function */
 5074               	/* frame size = 0 */
 5075 15b0 EC01      		movw r28,r24
 5076 15b2 8B01      		movw r16,r22
 5077               	.LM644:
 5078 15b4 8881      		ld r24,Y
 5079               	.LVL322:
 5080 15b6 8130      		cpi r24,lo8(1)
 5081 15b8 01F0      		breq .L255
 5082               	.LVL323:
 5083 15ba 81E0      		ldi r24,lo8(1)
 5084 15bc 00C0      		rjmp .L256
 5085               	.L255:
 5086               	.LM645:
 5087               	/* #APP */
 5088               	 ;  404 "E:\ELE542-Lab\uCOSII\uC-OSII\SOFTWARE\uCOS-II\SOURCE/os_mbox.c" 1
 5089 15be 0F93      		PUSH  R16
 5090               	 ;  0 "" 2
 5091               	 ;  404 "E:\ELE542-Lab\uCOSII\uC-OSII\SOFTWARE\uCOS-II\SOURCE/os_mbox.c" 1
 5092 15c0 0FB7      		IN    R16,0x3F
 5093               	 ;  0 "" 2
 5094               	 ;  404 "E:\ELE542-Lab\uCOSII\uC-OSII\SOFTWARE\uCOS-II\SOURCE/os_mbox.c" 1
 5095 15c2 0F93      		PUSH  R16
 5096               	 ;  0 "" 2
 5097               	 ;  404 "E:\ELE542-Lab\uCOSII\uC-OSII\SOFTWARE\uCOS-II\SOURCE/os_mbox.c" 1
 5098 15c4 F894      		cli
 5099               	 ;  0 "" 2
 5100               	.LM646:
 5101               	/* #NOAPP */
 5102 15c6 8981      		ldd r24,Y+1
 5103 15c8 8823      		tst r24
 5104 15ca 01F0      		breq .L257
 5105               	.LM647:
 5106 15cc 40FD      		sbrc r20,0
 5107 15ce 00C0      		rjmp .L264
 5108 15d0 00C0      		rjmp .L267
 5109               	.L260:
 5110               	.LM648:
 5111 15d2 CE01      		movw r24,r28
 5112 15d4 B801      		movw r22,r16
 5113 15d6 42E0      		ldi r20,lo8(2)
 5114               	.LVL324:
 5115 15d8 0E94 0000 		call OS_EventTaskRdy
 5116               	.LVL325:
 5117               	.L264:
 5118               	.LM649:
 5119 15dc 8981      		ldd r24,Y+1
 5120 15de 8823      		tst r24
 5121 15e0 01F4      		brne .L260
 5122 15e2 00C0      		rjmp .L261
 5123               	.L267:
 5124               	.LM650:
 5125 15e4 CE01      		movw r24,r28
 5126 15e6 42E0      		ldi r20,lo8(2)
 5127               	.LVL326:
 5128 15e8 0E94 0000 		call OS_EventTaskRdy
 5129               	.LVL327:
 5130               	.L261:
 5131               	.LM651:
 5132               	/* #APP */
 5133               	 ;  413 "E:\ELE542-Lab\uCOSII\uC-OSII\SOFTWARE\uCOS-II\SOURCE/os_mbox.c" 1
 5134 15ec 0F91      		POP  R16
 5135               	 ;  0 "" 2
 5136               	 ;  413 "E:\ELE542-Lab\uCOSII\uC-OSII\SOFTWARE\uCOS-II\SOURCE/os_mbox.c" 1
 5137 15ee 0FBF      		OUT  0x3F,R16
 5138               	 ;  0 "" 2
 5139               	 ;  413 "E:\ELE542-Lab\uCOSII\uC-OSII\SOFTWARE\uCOS-II\SOURCE/os_mbox.c" 1
 5140 15f0 0F91      		POP  R16
 5141               	 ;  0 "" 2
 5142               	.LM652:
 5143               	/* #NOAPP */
 5144 15f2 0E94 0000 		call OS_Sched
 5145               	.LVL328:
 5146 15f6 00C0      		rjmp .L266
 5147               	.LVL329:
 5148               	.L257:
 5149               	.LM653:
 5150 15f8 8C81      		ldd r24,Y+4
 5151 15fa 9D81      		ldd r25,Y+5
 5152 15fc 892B      		or r24,r25
 5153 15fe 01F0      		breq .L262
 5154               	.LM654:
 5155               	/* #APP */
 5156               	 ;  418 "E:\ELE542-Lab\uCOSII\uC-OSII\SOFTWARE\uCOS-II\SOURCE/os_mbox.c" 1
 5157 1600 0F91      		POP  R16
 5158               	 ;  0 "" 2
 5159               	 ;  418 "E:\ELE542-Lab\uCOSII\uC-OSII\SOFTWARE\uCOS-II\SOURCE/os_mbox.c" 1
 5160 1602 0FBF      		OUT  0x3F,R16
 5161               	 ;  0 "" 2
 5162               	 ;  418 "E:\ELE542-Lab\uCOSII\uC-OSII\SOFTWARE\uCOS-II\SOURCE/os_mbox.c" 1
 5163 1604 0F91      		POP  R16
 5164               	 ;  0 "" 2
 5165               	/* #NOAPP */
 5166 1606 84E1      		ldi r24,lo8(20)
 5167 1608 00C0      		rjmp .L256
 5168               	.L262:
 5169               	.LM655:
 5170 160a 7D83      		std Y+5,r23
 5171 160c 6C83      		std Y+4,r22
 5172               	.LM656:
 5173               	/* #APP */
 5174               	 ;  422 "E:\ELE542-Lab\uCOSII\uC-OSII\SOFTWARE\uCOS-II\SOURCE/os_mbox.c" 1
 5175 160e 0F91      		POP  R16
 5176               	 ;  0 "" 2
 5177               	 ;  422 "E:\ELE542-Lab\uCOSII\uC-OSII\SOFTWARE\uCOS-II\SOURCE/os_mbox.c" 1
 5178 1610 0FBF      		OUT  0x3F,R16
 5179               	 ;  0 "" 2
 5180               	 ;  422 "E:\ELE542-Lab\uCOSII\uC-OSII\SOFTWARE\uCOS-II\SOURCE/os_mbox.c" 1
 5181 1612 0F91      		POP  R16
 5182               	 ;  0 "" 2
 5183               	/* #NOAPP */
 5184               	.L266:
 5185 1614 80E0      		ldi r24,lo8(0)
 5186               	.L256:
 5187               	/* epilogue start */
 5188               	.LM657:
 5189 1616 DF91      		pop r29
 5190 1618 CF91      		pop r28
 5191               	.LVL330:
 5192 161a 1F91      		pop r17
 5193 161c 0F91      		pop r16
 5194               	.LVL331:
 5195 161e 0895      		ret
 5196               	.LFE34:
 5198               	.global	OSMboxPost
 5200               	OSMboxPost:
 5201               	.LFB33:
 5202               	.LM658:
 5203               	.LVL332:
 5204               	/* prologue: function */
 5205               	/* frame size = 0 */
 5206 1620 FC01      		movw r30,r24
 5207               	.LM659:
 5208 1622 8081      		ld r24,Z
 5209               	.LVL333:
 5210 1624 8130      		cpi r24,lo8(1)
 5211 1626 01F0      		breq .L269
 5212 1628 81E0      		ldi r24,lo8(1)
 5213 162a 0895      		ret
 5214               	.L269:
 5215               	.LM660:
 5216               	/* #APP */
 5217               	 ;  339 "E:\ELE542-Lab\uCOSII\uC-OSII\SOFTWARE\uCOS-II\SOURCE/os_mbox.c" 1
 5218 162c 0F93      		PUSH  R16
 5219               	 ;  0 "" 2
 5220               	 ;  339 "E:\ELE542-Lab\uCOSII\uC-OSII\SOFTWARE\uCOS-II\SOURCE/os_mbox.c" 1
 5221 162e 0FB7      		IN    R16,0x3F
 5222               	 ;  0 "" 2
 5223               	 ;  339 "E:\ELE542-Lab\uCOSII\uC-OSII\SOFTWARE\uCOS-II\SOURCE/os_mbox.c" 1
 5224 1630 0F93      		PUSH  R16
 5225               	 ;  0 "" 2
 5226               	 ;  339 "E:\ELE542-Lab\uCOSII\uC-OSII\SOFTWARE\uCOS-II\SOURCE/os_mbox.c" 1
 5227 1632 F894      		cli
 5228               	 ;  0 "" 2
 5229               	.LM661:
 5230               	/* #NOAPP */
 5231 1634 8181      		ldd r24,Z+1
 5232 1636 8823      		tst r24
 5233 1638 01F0      		breq .L271
 5234               	.LM662:
 5235 163a CF01      		movw r24,r30
 5236 163c 42E0      		ldi r20,lo8(2)
 5237 163e 0E94 0000 		call OS_EventTaskRdy
 5238               	.LVL334:
 5239               	.LM663:
 5240               	/* #APP */
 5241               	 ;  342 "E:\ELE542-Lab\uCOSII\uC-OSII\SOFTWARE\uCOS-II\SOURCE/os_mbox.c" 1
 5242 1642 0F91      		POP  R16
 5243               	 ;  0 "" 2
 5244               	 ;  342 "E:\ELE542-Lab\uCOSII\uC-OSII\SOFTWARE\uCOS-II\SOURCE/os_mbox.c" 1
 5245 1644 0FBF      		OUT  0x3F,R16
 5246               	 ;  0 "" 2
 5247               	 ;  342 "E:\ELE542-Lab\uCOSII\uC-OSII\SOFTWARE\uCOS-II\SOURCE/os_mbox.c" 1
 5248 1646 0F91      		POP  R16
 5249               	 ;  0 "" 2
 5250               	.LM664:
 5251               	/* #NOAPP */
 5252 1648 0E94 0000 		call OS_Sched
 5253 164c 80E0      		ldi r24,lo8(0)
 5254 164e 0895      		ret
 5255               	.LVL335:
 5256               	.L271:
 5257               	.LM665:
 5258 1650 8481      		ldd r24,Z+4
 5259 1652 9581      		ldd r25,Z+5
 5260 1654 892B      		or r24,r25
 5261 1656 01F0      		breq .L272
 5262               	.LM666:
 5263               	/* #APP */
 5264               	 ;  347 "E:\ELE542-Lab\uCOSII\uC-OSII\SOFTWARE\uCOS-II\SOURCE/os_mbox.c" 1
 5265 1658 0F91      		POP  R16
 5266               	 ;  0 "" 2
 5267               	 ;  347 "E:\ELE542-Lab\uCOSII\uC-OSII\SOFTWARE\uCOS-II\SOURCE/os_mbox.c" 1
 5268 165a 0FBF      		OUT  0x3F,R16
 5269               	 ;  0 "" 2
 5270               	 ;  347 "E:\ELE542-Lab\uCOSII\uC-OSII\SOFTWARE\uCOS-II\SOURCE/os_mbox.c" 1
 5271 165c 0F91      		POP  R16
 5272               	 ;  0 "" 2
 5273               	/* #NOAPP */
 5274 165e 84E1      		ldi r24,lo8(20)
 5275 1660 0895      		ret
 5276               	.L272:
 5277               	.LM667:
 5278 1662 7583      		std Z+5,r23
 5279 1664 6483      		std Z+4,r22
 5280               	.LM668:
 5281               	/* #APP */
 5282               	 ;  351 "E:\ELE542-Lab\uCOSII\uC-OSII\SOFTWARE\uCOS-II\SOURCE/os_mbox.c" 1
 5283 1666 0F91      		POP  R16
 5284               	 ;  0 "" 2
 5285               	 ;  351 "E:\ELE542-Lab\uCOSII\uC-OSII\SOFTWARE\uCOS-II\SOURCE/os_mbox.c" 1
 5286 1668 0FBF      		OUT  0x3F,R16
 5287               	 ;  0 "" 2
 5288               	 ;  351 "E:\ELE542-Lab\uCOSII\uC-OSII\SOFTWARE\uCOS-II\SOURCE/os_mbox.c" 1
 5289 166a 0F91      		POP  R16
 5290               	 ;  0 "" 2
 5291               	/* #NOAPP */
 5292 166c 80E0      		ldi r24,lo8(0)
 5293               	.LM669:
 5294 166e 0895      		ret
 5295               	.LFE33:
 5297               	.global	OSMboxPend
 5299               	OSMboxPend:
 5300               	.LFB32:
 5301               	.LM670:
 5302               	.LVL336:
 5303 1670 0F93      		push r16
 5304 1672 1F93      		push r17
 5305 1674 CF93      		push r28
 5306 1676 DF93      		push r29
 5307               	/* prologue: function */
 5308               	/* frame size = 0 */
 5309 1678 EC01      		movw r28,r24
 5310 167a 8A01      		movw r16,r20
 5311               	.LM671:
 5312 167c 8091 0000 		lds r24,OSIntNesting
 5313               	.LVL337:
 5314 1680 8823      		tst r24
 5315 1682 01F0      		breq .L275
 5316               	.LVL338:
 5317               	.LM672:
 5318 1684 82E0      		ldi r24,lo8(2)
 5319 1686 00C0      		rjmp .L283
 5320               	.L275:
 5321               	.LM673:
 5322 1688 8881      		ld r24,Y
 5323 168a 8130      		cpi r24,lo8(1)
 5324 168c 01F0      		breq .L277
 5325               	.LM674:
 5326 168e 81E0      		ldi r24,lo8(1)
 5327               	.L283:
 5328 1690 F801      		movw r30,r16
 5329 1692 8083      		st Z,r24
 5330 1694 20E0      		ldi r18,lo8(0)
 5331 1696 30E0      		ldi r19,hi8(0)
 5332               	.LVL339:
 5333 1698 00C0      		rjmp .L276
 5334               	.LVL340:
 5335               	.L277:
 5336               	.LM675:
 5337               	/* #APP */
 5338               	 ;  271 "E:\ELE542-Lab\uCOSII\uC-OSII\SOFTWARE\uCOS-II\SOURCE/os_mbox.c" 1
 5339 169a 0F93      		PUSH  R16
 5340               	 ;  0 "" 2
 5341               	 ;  271 "E:\ELE542-Lab\uCOSII\uC-OSII\SOFTWARE\uCOS-II\SOURCE/os_mbox.c" 1
 5342 169c 0FB7      		IN    R16,0x3F
 5343               	 ;  0 "" 2
 5344               	 ;  271 "E:\ELE542-Lab\uCOSII\uC-OSII\SOFTWARE\uCOS-II\SOURCE/os_mbox.c" 1
 5345 169e 0F93      		PUSH  R16
 5346               	 ;  0 "" 2
 5347               	 ;  271 "E:\ELE542-Lab\uCOSII\uC-OSII\SOFTWARE\uCOS-II\SOURCE/os_mbox.c" 1
 5348 16a0 F894      		cli
 5349               	 ;  0 "" 2
 5350               	.LM676:
 5351               	/* #NOAPP */
 5352 16a2 2C81      		ldd r18,Y+4
 5353 16a4 3D81      		ldd r19,Y+5
 5354               	.LVL341:
 5355               	.LM677:
 5356 16a6 2115      		cp r18,__zero_reg__
 5357 16a8 3105      		cpc r19,__zero_reg__
 5358 16aa 01F0      		breq .L278
 5359               	.LM678:
 5360 16ac 1D82      		std Y+5,__zero_reg__
 5361 16ae 1C82      		std Y+4,__zero_reg__
 5362               	.LM679:
 5363               	/* #APP */
 5364               	 ;  275 "E:\ELE542-Lab\uCOSII\uC-OSII\SOFTWARE\uCOS-II\SOURCE/os_mbox.c" 1
 5365 16b0 0F91      		POP  R16
 5366               	 ;  0 "" 2
 5367               	 ;  275 "E:\ELE542-Lab\uCOSII\uC-OSII\SOFTWARE\uCOS-II\SOURCE/os_mbox.c" 1
 5368 16b2 0FBF      		OUT  0x3F,R16
 5369               	 ;  0 "" 2
 5370               	 ;  275 "E:\ELE542-Lab\uCOSII\uC-OSII\SOFTWARE\uCOS-II\SOURCE/os_mbox.c" 1
 5371 16b4 0F91      		POP  R16
 5372               	 ;  0 "" 2
 5373               	/* #NOAPP */
 5374 16b6 00C0      		rjmp .L284
 5375               	.L278:
 5376               	.LM680:
 5377 16b8 A091 0000 		lds r26,OSTCBCur
 5378 16bc B091 0000 		lds r27,(OSTCBCur)+1
 5379 16c0 1D96      		adiw r26,13
 5380 16c2 8C91      		ld r24,X
 5381 16c4 1D97      		sbiw r26,13
 5382 16c6 8260      		ori r24,lo8(2)
 5383 16c8 1D96      		adiw r26,13
 5384 16ca 8C93      		st X,r24
 5385 16cc 1D97      		sbiw r26,13
 5386               	.LM681:
 5387 16ce 1C96      		adiw r26,11+1
 5388 16d0 7C93      		st X,r23
 5389 16d2 6E93      		st -X,r22
 5390 16d4 1B97      		sbiw r26,11
 5391               	.LBB70:
 5392               	.LBB71:
 5393               	.LM682:
 5394 16d6 1796      		adiw r26,6+1
 5395 16d8 DC93      		st X,r29
 5396 16da CE93      		st -X,r28
 5397 16dc 1697      		sbiw r26,6
 5398               	.LM683:
 5399 16de 5096      		adiw r26,16
 5400 16e0 8C91      		ld r24,X
 5401 16e2 5097      		sbiw r26,16
 5402 16e4 282F      		mov r18,r24
 5403               	.LVL342:
 5404 16e6 30E0      		ldi r19,lo8(0)
 5405 16e8 5196      		adiw r26,17
 5406 16ea 4C91      		ld r20,X
 5407 16ec 5197      		sbiw r26,17
 5408 16ee F901      		movw r30,r18
 5409 16f0 E050      		subi r30,lo8(-(OSRdyTbl))
 5410 16f2 F040      		sbci r31,hi8(-(OSRdyTbl))
 5411 16f4 842F      		mov r24,r20
 5412 16f6 8095      		com r24
 5413 16f8 9081      		ld r25,Z
 5414 16fa 8923      		and r24,r25
 5415 16fc 8083      		st Z,r24
 5416               	.LM684:
 5417 16fe 8823      		tst r24
 5418 1700 01F4      		brne .L279
 5419               	.LM685:
 5420 1702 5296      		adiw r26,18
 5421 1704 9C91      		ld r25,X
 5422 1706 5297      		sbiw r26,18
 5423 1708 9095      		com r25
 5424 170a 8091 0000 		lds r24,OSRdyGrp
 5425 170e 8923      		and r24,r25
 5426 1710 8093 0000 		sts OSRdyGrp,r24
 5427               	.L279:
 5428               	.LM686:
 5429 1714 FE01      		movw r30,r28
 5430 1716 E20F      		add r30,r18
 5431 1718 F31F      		adc r31,r19
 5432 171a 8681      		ldd r24,Z+6
 5433 171c 842B      		or r24,r20
 5434 171e 8683      		std Z+6,r24
 5435               	.LM687:
 5436 1720 8981      		ldd r24,Y+1
 5437 1722 5296      		adiw r26,18
 5438 1724 9C91      		ld r25,X
 5439 1726 892B      		or r24,r25
 5440 1728 8983      		std Y+1,r24
 5441               	.LBE71:
 5442               	.LBE70:
 5443               	.LM688:
 5444               	/* #APP */
 5445               	 ;  282 "E:\ELE542-Lab\uCOSII\uC-OSII\SOFTWARE\uCOS-II\SOURCE/os_mbox.c" 1
 5446 172a 0F91      		POP  R16
 5447               	 ;  0 "" 2
 5448               	 ;  282 "E:\ELE542-Lab\uCOSII\uC-OSII\SOFTWARE\uCOS-II\SOURCE/os_mbox.c" 1
 5449 172c 0FBF      		OUT  0x3F,R16
 5450               	 ;  0 "" 2
 5451               	 ;  282 "E:\ELE542-Lab\uCOSII\uC-OSII\SOFTWARE\uCOS-II\SOURCE/os_mbox.c" 1
 5452 172e 0F91      		POP  R16
 5453               	 ;  0 "" 2
 5454               	.LM689:
 5455               	/* #NOAPP */
 5456 1730 0E94 0000 		call OS_Sched
 5457               	.LVL343:
 5458               	.LM690:
 5459               	/* #APP */
 5460               	 ;  284 "E:\ELE542-Lab\uCOSII\uC-OSII\SOFTWARE\uCOS-II\SOURCE/os_mbox.c" 1
 5461 1734 0F93      		PUSH  R16
 5462               	 ;  0 "" 2
 5463               	 ;  284 "E:\ELE542-Lab\uCOSII\uC-OSII\SOFTWARE\uCOS-II\SOURCE/os_mbox.c" 1
 5464 1736 0FB7      		IN    R16,0x3F
 5465               	 ;  0 "" 2
 5466               	 ;  284 "E:\ELE542-Lab\uCOSII\uC-OSII\SOFTWARE\uCOS-II\SOURCE/os_mbox.c" 1
 5467 1738 0F93      		PUSH  R16
 5468               	 ;  0 "" 2
 5469               	 ;  284 "E:\ELE542-Lab\uCOSII\uC-OSII\SOFTWARE\uCOS-II\SOURCE/os_mbox.c" 1
 5470 173a F894      		cli
 5471               	 ;  0 "" 2
 5472               	.LM691:
 5473               	/* #NOAPP */
 5474 173c A091 0000 		lds r26,OSTCBCur
 5475 1740 B091 0000 		lds r27,(OSTCBCur)+1
 5476 1744 1896      		adiw r26,8
 5477 1746 2D91      		ld r18,X+
 5478 1748 3C91      		ld r19,X
 5479 174a 1997      		sbiw r26,8+1
 5480               	.LVL344:
 5481               	.LM692:
 5482 174c 2115      		cp r18,__zero_reg__
 5483 174e 3105      		cpc r19,__zero_reg__
 5484 1750 01F0      		breq .L280
 5485               	.LM693:
 5486 1752 1996      		adiw r26,8+1
 5487 1754 1C92      		st X,__zero_reg__
 5488 1756 1E92      		st -X,__zero_reg__
 5489 1758 1897      		sbiw r26,8
 5490               	.LM694:
 5491 175a 1D96      		adiw r26,13
 5492 175c 1C92      		st X,__zero_reg__
 5493 175e 1D97      		sbiw r26,13
 5494               	.LM695:
 5495 1760 1796      		adiw r26,6+1
 5496 1762 1C92      		st X,__zero_reg__
 5497 1764 1E92      		st -X,__zero_reg__
 5498 1766 1697      		sbiw r26,6
 5499               	.LM696:
 5500               	/* #APP */
 5501               	 ;  290 "E:\ELE542-Lab\uCOSII\uC-OSII\SOFTWARE\uCOS-II\SOURCE/os_mbox.c" 1
 5502 1768 0F91      		POP  R16
 5503               	 ;  0 "" 2
 5504               	 ;  290 "E:\ELE542-Lab\uCOSII\uC-OSII\SOFTWARE\uCOS-II\SOURCE/os_mbox.c" 1
 5505 176a 0FBF      		OUT  0x3F,R16
 5506               	 ;  0 "" 2
 5507               	 ;  290 "E:\ELE542-Lab\uCOSII\uC-OSII\SOFTWARE\uCOS-II\SOURCE/os_mbox.c" 1
 5508 176c 0F91      		POP  R16
 5509               	 ;  0 "" 2
 5510               	.LVL345:
 5511               	/* #NOAPP */
 5512               	.L284:
 5513               	.LM697:
 5514 176e F801      		movw r30,r16
 5515 1770 1082      		st Z,__zero_reg__
 5516 1772 00C0      		rjmp .L276
 5517               	.LVL346:
 5518               	.L280:
 5519               	.LBB72:
 5520               	.LBB73:
 5521               	.LM698:
 5522 1774 5096      		adiw r26,16
 5523 1776 8C91      		ld r24,X
 5524 1778 5097      		sbiw r26,16
 5525 177a FE01      		movw r30,r28
 5526 177c E80F      		add r30,r24
 5527 177e F11D      		adc r31,__zero_reg__
 5528 1780 5196      		adiw r26,17
 5529 1782 8C91      		ld r24,X
 5530 1784 5197      		sbiw r26,17
 5531 1786 8095      		com r24
 5532 1788 9681      		ldd r25,Z+6
 5533 178a 8923      		and r24,r25
 5534 178c 8683      		std Z+6,r24
 5535               	.LM699:
 5536 178e 8823      		tst r24
 5537 1790 01F4      		brne .L281
 5538               	.LM700:
 5539 1792 5296      		adiw r26,18
 5540 1794 9C91      		ld r25,X
 5541 1796 5297      		sbiw r26,18
 5542 1798 9095      		com r25
 5543 179a 8981      		ldd r24,Y+1
 5544 179c 8923      		and r24,r25
 5545 179e 8983      		std Y+1,r24
 5546               	.L281:
 5547               	.LM701:
 5548 17a0 1D96      		adiw r26,13
 5549 17a2 1C92      		st X,__zero_reg__
 5550 17a4 1D97      		sbiw r26,13
 5551               	.LM702:
 5552 17a6 1796      		adiw r26,6+1
 5553 17a8 1C92      		st X,__zero_reg__
 5554 17aa 1E92      		st -X,__zero_reg__
 5555 17ac 1697      		sbiw r26,6
 5556               	.LBE73:
 5557               	.LBE72:
 5558               	.LM703:
 5559               	/* #APP */
 5560               	 ;  295 "E:\ELE542-Lab\uCOSII\uC-OSII\SOFTWARE\uCOS-II\SOURCE/os_mbox.c" 1
 5561 17ae 0F91      		POP  R16
 5562               	 ;  0 "" 2
 5563               	 ;  295 "E:\ELE542-Lab\uCOSII\uC-OSII\SOFTWARE\uCOS-II\SOURCE/os_mbox.c" 1
 5564 17b0 0FBF      		OUT  0x3F,R16
 5565               	 ;  0 "" 2
 5566               	 ;  295 "E:\ELE542-Lab\uCOSII\uC-OSII\SOFTWARE\uCOS-II\SOURCE/os_mbox.c" 1
 5567 17b2 0F91      		POP  R16
 5568               	 ;  0 "" 2
 5569               	.LM704:
 5570               	/* #NOAPP */
 5571 17b4 8AE0      		ldi r24,lo8(10)
 5572 17b6 F801      		movw r30,r16
 5573 17b8 8083      		st Z,r24
 5574               	.LVL347:
 5575               	.L276:
 5576               	.LM705:
 5577 17ba C901      		movw r24,r18
 5578               	.LVL348:
 5579               	/* epilogue start */
 5580 17bc DF91      		pop r29
 5581 17be CF91      		pop r28
 5582               	.LVL349:
 5583 17c0 1F91      		pop r17
 5584 17c2 0F91      		pop r16
 5585               	.LVL350:
 5586 17c4 0895      		ret
 5587               	.LFE32:
 5589               	.global	OSFlagPost
 5591               	OSFlagPost:
 5592               	.LFB24:
 5593               	.LM706:
 5594               	.LVL351:
 5595 17c6 CF92      		push r12
 5596 17c8 DF92      		push r13
 5597 17ca EF92      		push r14
 5598 17cc FF92      		push r15
 5599 17ce 0F93      		push r16
 5600 17d0 1F93      		push r17
 5601 17d2 DF93      		push r29
 5602 17d4 CF93      		push r28
 5603 17d6 0F92      		push __tmp_reg__
 5604 17d8 CDB7      		in r28,__SP_L__
 5605 17da DEB7      		in r29,__SP_H__
 5606               	/* prologue: function */
 5607               	/* frame size = 1 */
 5608 17dc 8C01      		movw r16,r24
 5609 17de 7901      		movw r14,r18
 5610               	.LM707:
 5611 17e0 FC01      		movw r30,r24
 5612 17e2 8081      		ld r24,Z
 5613               	.LVL352:
 5614 17e4 8530      		cpi r24,lo8(5)
 5615 17e6 01F0      		breq .L286
 5616               	.LVL353:
 5617               	.LM708:
 5618 17e8 81E0      		ldi r24,lo8(1)
 5619 17ea 00C0      		rjmp .L310
 5620               	.L286:
 5621               	.LM709:
 5622               	/* #APP */
 5623               	 ;  744 "E:\ELE542-Lab\uCOSII\uC-OSII\SOFTWARE\uCOS-II\SOURCE/os_flag.c" 1
 5624 17ec 0F93      		PUSH  R16
 5625               	 ;  0 "" 2
 5626               	 ;  744 "E:\ELE542-Lab\uCOSII\uC-OSII\SOFTWARE\uCOS-II\SOURCE/os_flag.c" 1
 5627 17ee 0FB7      		IN    R16,0x3F
 5628               	 ;  0 "" 2
 5629               	 ;  744 "E:\ELE542-Lab\uCOSII\uC-OSII\SOFTWARE\uCOS-II\SOURCE/os_flag.c" 1
 5630 17f0 0F93      		PUSH  R16
 5631               	 ;  0 "" 2
 5632               	 ;  744 "E:\ELE542-Lab\uCOSII\uC-OSII\SOFTWARE\uCOS-II\SOURCE/os_flag.c" 1
 5633 17f2 F894      		cli
 5634               	 ;  0 "" 2
 5635               	.LM710:
 5636               	/* #NOAPP */
 5637 17f4 4423      		tst r20
 5638 17f6 01F0      		breq .L289
 5639 17f8 4130      		cpi r20,lo8(1)
 5640 17fa 01F4      		brne .L303
 5641 17fc 00C0      		rjmp .L315
 5642               	.L289:
 5643               	.LM711:
 5644 17fe 6095      		com r22
 5645               	.LVL354:
 5646 1800 F801      		movw r30,r16
 5647 1802 8381      		ldd r24,Z+3
 5648 1804 8623      		and r24,r22
 5649 1806 00C0      		rjmp .L305
 5650               	.L315:
 5651               	.LM712:
 5652 1808 F801      		movw r30,r16
 5653 180a 8381      		ldd r24,Z+3
 5654 180c 862B      		or r24,r22
 5655               	.L305:
 5656 180e 8383      		std Z+3,r24
 5657               	.LM713:
 5658 1810 F801      		movw r30,r16
 5659 1812 C180      		ldd r12,Z+1
 5660 1814 D280      		ldd r13,Z+2
 5661               	.LVL355:
 5662 1816 1982      		std Y+1,__zero_reg__
 5663               	.LVL356:
 5664 1818 00C0      		rjmp .L292
 5665               	.LVL357:
 5666               	.L303:
 5667               	.LM714:
 5668               	/* #APP */
 5669               	 ;  755 "E:\ELE542-Lab\uCOSII\uC-OSII\SOFTWARE\uCOS-II\SOURCE/os_flag.c" 1
 5670 181a 0F91      		POP  R16
 5671               	 ;  0 "" 2
 5672               	 ;  755 "E:\ELE542-Lab\uCOSII\uC-OSII\SOFTWARE\uCOS-II\SOURCE/os_flag.c" 1
 5673 181c 0FBF      		OUT  0x3F,R16
 5674               	 ;  0 "" 2
 5675               	 ;  755 "E:\ELE542-Lab\uCOSII\uC-OSII\SOFTWARE\uCOS-II\SOURCE/os_flag.c" 1
 5676 181e 0F91      		POP  R16
 5677               	 ;  0 "" 2
 5678               	.LM715:
 5679               	/* #NOAPP */
 5680 1820 89E9      		ldi r24,lo8(-103)
 5681               	.LVL358:
 5682               	.L310:
 5683 1822 F701      		movw r30,r14
 5684 1824 8083      		st Z,r24
 5685 1826 80E0      		ldi r24,lo8(0)
 5686               	.LVL359:
 5687 1828 00C0      		rjmp .L287
 5688               	.LVL360:
 5689               	.L300:
 5690               	.LM716:
 5691 182a F601      		movw r30,r12
 5692 182c 8185      		ldd r24,Z+9
 5693 182e 8130      		cpi r24,lo8(1)
 5694 1830 01F0      		breq .L295
 5695 1832 8130      		cpi r24,lo8(1)
 5696 1834 00F0      		brlo .L294
 5697 1836 8230      		cpi r24,lo8(2)
 5698 1838 01F0      		breq .L296
 5699 183a 8330      		cpi r24,lo8(3)
 5700 183c 01F4      		brne .L304
 5701 183e 00C0      		rjmp .L316
 5702               	.L296:
 5703               	.LM717:
 5704 1840 F601      		movw r30,r12
 5705 1842 8085      		ldd r24,Z+8
 5706 1844 F801      		movw r30,r16
 5707 1846 6381      		ldd r22,Z+3
 5708               	.LVL361:
 5709 1848 00C0      		rjmp .L314
 5710               	.LVL362:
 5711               	.L316:
 5712               	.LM718:
 5713 184a F601      		movw r30,r12
 5714 184c 6085      		ldd r22,Z+8
 5715               	.LVL363:
 5716 184e F801      		movw r30,r16
 5717 1850 8381      		ldd r24,Z+3
 5718 1852 00C0      		rjmp .L312
 5719               	.LVL364:
 5720               	.L294:
 5721               	.LM719:
 5722 1854 F601      		movw r30,r12
 5723 1856 8085      		ldd r24,Z+8
 5724 1858 F801      		movw r30,r16
 5725 185a 6381      		ldd r22,Z+3
 5726               	.LVL365:
 5727 185c 6095      		com r22
 5728               	.L314:
 5729 185e 6823      		and r22,r24
 5730               	.LM720:
 5731 1860 6817      		cp r22,r24
 5732 1862 01F4      		brne .L298
 5733 1864 00C0      		rjmp .L307
 5734               	.LVL366:
 5735               	.L295:
 5736               	.LM721:
 5737 1866 F801      		movw r30,r16
 5738 1868 6381      		ldd r22,Z+3
 5739               	.LVL367:
 5740 186a 6095      		com r22
 5741 186c F601      		movw r30,r12
 5742 186e 8085      		ldd r24,Z+8
 5743               	.L312:
 5744 1870 6823      		and r22,r24
 5745               	.LM722:
 5746 1872 01F0      		breq .L298
 5747               	.L307:
 5748               	.LM723:
 5749 1874 C601      		movw r24,r12
 5750 1876 0E94 0000 		call OS_FlagTaskRdy
 5751               	.LVL368:
 5752               	.LM724:
 5753 187a 8130      		cpi r24,lo8(1)
 5754 187c 01F4      		brne .L298
 5755 187e 00C0      		rjmp .L317
 5756               	.LVL369:
 5757               	.L304:
 5758               	.LM725:
 5759               	/* #APP */
 5760               	 ;  805 "E:\ELE542-Lab\uCOSII\uC-OSII\SOFTWARE\uCOS-II\SOURCE/os_flag.c" 1
 5761 1880 0F91      		POP  R16
 5762               	 ;  0 "" 2
 5763               	 ;  805 "E:\ELE542-Lab\uCOSII\uC-OSII\SOFTWARE\uCOS-II\SOURCE/os_flag.c" 1
 5764 1882 0FBF      		OUT  0x3F,R16
 5765               	 ;  0 "" 2
 5766               	 ;  805 "E:\ELE542-Lab\uCOSII\uC-OSII\SOFTWARE\uCOS-II\SOURCE/os_flag.c" 1
 5767 1884 0F91      		POP  R16
 5768               	 ;  0 "" 2
 5769               	.LM726:
 5770               	/* #NOAPP */
 5771 1886 87E9      		ldi r24,lo8(-105)
 5772 1888 00C0      		rjmp .L310
 5773               	.LVL370:
 5774               	.L317:
 5775               	.LM727:
 5776 188a F1E0      		ldi r31,lo8(1)
 5777 188c F983      		std Y+1,r31
 5778               	.LVL371:
 5779               	.L298:
 5780               	.LM728:
 5781 188e F601      		movw r30,r12
 5782 1890 8081      		ld r24,Z
 5783               	.LVL372:
 5784 1892 9181      		ldd r25,Z+1
 5785 1894 9C01      		movw r18,r24
 5786               	.LVL373:
 5787 1896 6901      		movw r12,r18
 5788               	.LVL374:
 5789               	.L292:
 5790               	.LM729:
 5791 1898 C114      		cp r12,__zero_reg__
 5792 189a D104      		cpc r13,__zero_reg__
 5793 189c 01F4      		brne .L300
 5794               	.LM730:
 5795               	/* #APP */
 5796               	 ;  811 "E:\ELE542-Lab\uCOSII\uC-OSII\SOFTWARE\uCOS-II\SOURCE/os_flag.c" 1
 5797 189e 0F91      		POP  R16
 5798               	 ;  0 "" 2
 5799               	 ;  811 "E:\ELE542-Lab\uCOSII\uC-OSII\SOFTWARE\uCOS-II\SOURCE/os_flag.c" 1
 5800 18a0 0FBF      		OUT  0x3F,R16
 5801               	 ;  0 "" 2
 5802               	 ;  811 "E:\ELE542-Lab\uCOSII\uC-OSII\SOFTWARE\uCOS-II\SOURCE/os_flag.c" 1
 5803 18a2 0F91      		POP  R16
 5804               	 ;  0 "" 2
 5805               	.LM731:
 5806               	/* #NOAPP */
 5807 18a4 F981      		ldd r31,Y+1
 5808 18a6 F130      		cpi r31,lo8(1)
 5809 18a8 01F4      		brne .L301
 5810               	.LM732:
 5811 18aa 0E94 0000 		call OS_Sched
 5812               	.LVL375:
 5813               	.L301:
 5814               	.LM733:
 5815               	/* #APP */
 5816               	 ;  815 "E:\ELE542-Lab\uCOSII\uC-OSII\SOFTWARE\uCOS-II\SOURCE/os_flag.c" 1
 5817 18ae 0F93      		PUSH  R16
 5818               	 ;  0 "" 2
 5819               	 ;  815 "E:\ELE542-Lab\uCOSII\uC-OSII\SOFTWARE\uCOS-II\SOURCE/os_flag.c" 1
 5820 18b0 0FB7      		IN    R16,0x3F
 5821               	 ;  0 "" 2
 5822               	 ;  815 "E:\ELE542-Lab\uCOSII\uC-OSII\SOFTWARE\uCOS-II\SOURCE/os_flag.c" 1
 5823 18b2 0F93      		PUSH  R16
 5824               	 ;  0 "" 2
 5825               	 ;  815 "E:\ELE542-Lab\uCOSII\uC-OSII\SOFTWARE\uCOS-II\SOURCE/os_flag.c" 1
 5826 18b4 F894      		cli
 5827               	 ;  0 "" 2
 5828               	.LM734:
 5829               	/* #NOAPP */
 5830 18b6 F801      		movw r30,r16
 5831 18b8 8381      		ldd r24,Z+3
 5832               	.LVL376:
 5833               	.LM735:
 5834               	/* #APP */
 5835               	 ;  817 "E:\ELE542-Lab\uCOSII\uC-OSII\SOFTWARE\uCOS-II\SOURCE/os_flag.c" 1
 5836 18ba 0F91      		POP  R16
 5837               	 ;  0 "" 2
 5838               	 ;  817 "E:\ELE542-Lab\uCOSII\uC-OSII\SOFTWARE\uCOS-II\SOURCE/os_flag.c" 1
 5839 18bc 0FBF      		OUT  0x3F,R16
 5840               	 ;  0 "" 2
 5841               	 ;  817 "E:\ELE542-Lab\uCOSII\uC-OSII\SOFTWARE\uCOS-II\SOURCE/os_flag.c" 1
 5842 18be 0F91      		POP  R16
 5843               	 ;  0 "" 2
 5844               	.LM736:
 5845               	/* #NOAPP */
 5846 18c0 F701      		movw r30,r14
 5847 18c2 1082      		st Z,__zero_reg__
 5848               	.L287:
 5849               	.LVL377:
 5850               	/* epilogue start */
 5851               	.LM737:
 5852 18c4 0F90      		pop __tmp_reg__
 5853 18c6 CF91      		pop r28
 5854 18c8 DF91      		pop r29
 5855 18ca 1F91      		pop r17
 5856 18cc 0F91      		pop r16
 5857               	.LVL378:
 5858 18ce FF90      		pop r15
 5859 18d0 EF90      		pop r14
 5860               	.LVL379:
 5861 18d2 DF90      		pop r13
 5862 18d4 CF90      		pop r12
 5863               	.LVL380:
 5864 18d6 0895      		ret
 5865               	.LFE24:
 5867               	.global	OSFlagPend
 5869               	OSFlagPend:
 5870               	.LFB22:
 5871               	.LM738:
 5872               	.LVL381:
 5873 18d8 DF92      		push r13
 5874 18da EF92      		push r14
 5875 18dc FF92      		push r15
 5876 18de 0F93      		push r16
 5877               	.LVL382:
 5878 18e0 1F93      		push r17
 5879 18e2 DF93      		push r29
 5880 18e4 CF93      		push r28
 5881 18e6 CDB7      		in r28,__SP_L__
 5882 18e8 DEB7      		in r29,__SP_H__
 5883 18ea 2B97      		sbiw r28,11
 5884 18ec 0FB6      		in __tmp_reg__,__SREG__
 5885 18ee F894      		cli
 5886 18f0 DEBF      		out __SP_H__,r29
 5887 18f2 0FBE      		out __SREG__,__tmp_reg__
 5888 18f4 CDBF      		out __SP_L__,r28
 5889               	/* prologue: function */
 5890               	/* frame size = 11 */
 5891 18f6 7C01      		movw r14,r24
 5892 18f8 D42E      		mov r13,r20
 5893               	.LM739:
 5894 18fa 8091 0000 		lds r24,OSIntNesting
 5895               	.LVL383:
 5896 18fe 8823      		tst r24
 5897 1900 01F0      		breq .L319
 5898               	.LVL384:
 5899               	.LM740:
 5900 1902 82E0      		ldi r24,lo8(2)
 5901 1904 00C0      		rjmp .L356
 5902               	.L319:
 5903               	.LM741:
 5904 1906 F701      		movw r30,r14
 5905 1908 8081      		ld r24,Z
 5906 190a 8530      		cpi r24,lo8(5)
 5907 190c 01F0      		breq .L321
 5908               	.LM742:
 5909 190e 81E0      		ldi r24,lo8(1)
 5910               	.LVL385:
 5911               	.L356:
 5912 1910 D801      		movw r26,r16
 5913               	.LVL386:
 5914 1912 8C93      		st X,r24
 5915               	.LVL387:
 5916               	.L357:
 5917 1914 80E0      		ldi r24,lo8(0)
 5918               	.LVL388:
 5919 1916 00C0      		rjmp .L320
 5920               	.LVL389:
 5921               	.L321:
 5922               	.LM743:
 5923 1918 47FD      		sbrc r20,7
 5924 191a 00C0      		rjmp .L322
 5925               	.LVL390:
 5926 191c 1B86      		std Y+11,__zero_reg__
 5927               	.LVL391:
 5928 191e 00C0      		rjmp .L323
 5929               	.LVL392:
 5930               	.L322:
 5931               	.LM744:
 5932 1920 BFE7      		ldi r27,lo8(127)
 5933 1922 DB22      		and r13,r27
 5934               	.LVL393:
 5935 1924 E1E0      		ldi r30,lo8(1)
 5936 1926 EB87      		std Y+11,r30
 5937               	.LVL394:
 5938               	.L323:
 5939               	.LM745:
 5940               	/* #APP */
 5941               	 ;  541 "E:\ELE542-Lab\uCOSII\uC-OSII\SOFTWARE\uCOS-II\SOURCE/os_flag.c" 1
 5942 1928 0F93      		PUSH  R16
 5943               	 ;  0 "" 2
 5944               	 ;  541 "E:\ELE542-Lab\uCOSII\uC-OSII\SOFTWARE\uCOS-II\SOURCE/os_flag.c" 1
 5945 192a 0FB7      		IN    R16,0x3F
 5946               	 ;  0 "" 2
 5947               	 ;  541 "E:\ELE542-Lab\uCOSII\uC-OSII\SOFTWARE\uCOS-II\SOURCE/os_flag.c" 1
 5948 192c 0F93      		PUSH  R16
 5949               	 ;  0 "" 2
 5950               	 ;  541 "E:\ELE542-Lab\uCOSII\uC-OSII\SOFTWARE\uCOS-II\SOURCE/os_flag.c" 1
 5951 192e F894      		cli
 5952               	 ;  0 "" 2
 5953               	.LM746:
 5954               	/* #NOAPP */
 5955 1930 F1E0      		ldi r31,lo8(1)
 5956 1932 DF16      		cp r13,r31
 5957 1934 01F4      		brne .+2
 5958 1936 00C0      		rjmp .L326
 5959 1938 DF16      		cp r13,r31
 5960 193a 00F4      		brsh .+2
 5961 193c 00C0      		rjmp .L325
 5962 193e 82E0      		ldi r24,lo8(2)
 5963 1940 D816      		cp r13,r24
 5964 1942 01F0      		breq .L327
 5965 1944 A3E0      		ldi r26,lo8(3)
 5966 1946 DA16      		cp r13,r26
 5967 1948 01F0      		breq .+2
 5968 194a 00C0      		rjmp .L354
 5969 194c 00C0      		rjmp .L360
 5970               	.L327:
 5971               	.LM747:
 5972 194e F701      		movw r30,r14
 5973 1950 9381      		ldd r25,Z+3
 5974 1952 862F      		mov r24,r22
 5975               	.LVL395:
 5976 1954 8923      		and r24,r25
 5977               	.LM748:
 5978 1956 8617      		cp r24,r22
 5979 1958 01F4      		brne .L329
 5980               	.LM749:
 5981 195a FB85      		ldd r31,Y+11
 5982 195c F130      		cpi r31,lo8(1)
 5983 195e 01F4      		brne .L330
 5984               	.LM750:
 5985 1960 6095      		com r22
 5986               	.LVL396:
 5987 1962 9623      		and r25,r22
 5988 1964 D701      		movw r26,r14
 5989 1966 1396      		adiw r26,3
 5990 1968 9C93      		st X,r25
 5991               	.L330:
 5992               	.LM751:
 5993 196a F701      		movw r30,r14
 5994 196c 8381      		ldd r24,Z+3
 5995               	.LVL397:
 5996               	.LM752:
 5997               	/* #APP */
 5998               	 ;  550 "E:\ELE542-Lab\uCOSII\uC-OSII\SOFTWARE\uCOS-II\SOURCE/os_flag.c" 1
 5999 196e 0F91      		POP  R16
 6000               	 ;  0 "" 2
 6001               	 ;  550 "E:\ELE542-Lab\uCOSII\uC-OSII\SOFTWARE\uCOS-II\SOURCE/os_flag.c" 1
 6002 1970 0FBF      		OUT  0x3F,R16
 6003               	 ;  0 "" 2
 6004               	 ;  550 "E:\ELE542-Lab\uCOSII\uC-OSII\SOFTWARE\uCOS-II\SOURCE/os_flag.c" 1
 6005 1972 0F91      		POP  R16
 6006               	 ;  0 "" 2
 6007               	.LM753:
 6008               	/* #NOAPP */
 6009 1974 D801      		movw r26,r16
 6010               	.LVL398:
 6011 1976 1C92      		st X,__zero_reg__
 6012 1978 00C0      		rjmp .L320
 6013               	.LVL399:
 6014               	.L329:
 6015               	.LBB74:
 6016               	.LBB75:
 6017               	.LM754:
 6018 197a E091 0000 		lds r30,OSTCBCur
 6019 197e F091 0000 		lds r31,(OSTCBCur)+1
 6020 1982 8585      		ldd r24,Z+13
 6021               	.LVL400:
 6022 1984 8062      		ori r24,lo8(32)
 6023 1986 8587      		std Z+13,r24
 6024               	.LM755:
 6025 1988 E091 0000 		lds r30,OSTCBCur
 6026 198c F091 0000 		lds r31,(OSTCBCur)+1
 6027 1990 3487      		std Z+12,r19
 6028 1992 2387      		std Z+11,r18
 6029               	.LM756:
 6030 1994 6987      		std Y+9,r22
 6031               	.LM757:
 6032 1996 DA86      		std Y+10,r13
 6033               	.LM758:
 6034 1998 FE83      		std Y+6,r31
 6035 199a ED83      		std Y+5,r30
 6036               	.LM759:
 6037 199c D701      		movw r26,r14
 6038 199e 1196      		adiw r26,1
 6039 19a0 ED91      		ld r30,X+
 6040 19a2 FC91      		ld r31,X
 6041 19a4 1297      		sbiw r26,1+1
 6042 19a6 FA83      		std Y+2,r31
 6043 19a8 E983      		std Y+1,r30
 6044               	.LM760:
 6045 19aa 1C82      		std Y+4,__zero_reg__
 6046 19ac 1B82      		std Y+3,__zero_reg__
 6047               	.LM761:
 6048 19ae F886      		std Y+8,r15
 6049 19b0 EF82      		std Y+7,r14
 6050               	.LM762:
 6051 19b2 3097      		sbiw r30,0
 6052 19b4 01F0      		breq .L331
 6053               	.LM763:
 6054 19b6 CE01      		movw r24,r28
 6055 19b8 0196      		adiw r24,1
 6056 19ba 9383      		std Z+3,r25
 6057 19bc 8283      		std Z+2,r24
 6058               	.L331:
 6059               	.LM764:
 6060 19be CE01      		movw r24,r28
 6061 19c0 0196      		adiw r24,1
 6062 19c2 F701      		movw r30,r14
 6063 19c4 9283      		std Z+2,r25
 6064 19c6 8183      		std Z+1,r24
 6065               	.LM765:
 6066 19c8 A091 0000 		lds r26,OSTCBCur
 6067 19cc B091 0000 		lds r27,(OSTCBCur)+1
 6068               	.LM766:
 6069 19d0 5096      		adiw r26,16
 6070 19d2 EC91      		ld r30,X
 6071 19d4 5097      		sbiw r26,16
 6072 19d6 F0E0      		ldi r31,lo8(0)
 6073 19d8 E050      		subi r30,lo8(-(OSRdyTbl))
 6074 19da F040      		sbci r31,hi8(-(OSRdyTbl))
 6075 19dc 5196      		adiw r26,17
 6076 19de 8C91      		ld r24,X
 6077 19e0 5197      		sbiw r26,17
 6078 19e2 8095      		com r24
 6079 19e4 9081      		ld r25,Z
 6080 19e6 8923      		and r24,r25
 6081 19e8 8083      		st Z,r24
 6082               	.LM767:
 6083 19ea 8823      		tst r24
 6084 19ec 01F4      		brne .L332
 6085               	.LM768:
 6086 19ee 5296      		adiw r26,18
 6087 19f0 9C91      		ld r25,X
 6088 19f2 9095      		com r25
 6089 19f4 8091 0000 		lds r24,OSRdyGrp
 6090 19f8 8923      		and r24,r25
 6091 19fa 8093 0000 		sts OSRdyGrp,r24
 6092               	.L332:
 6093               	.LBE75:
 6094               	.LBE74:
 6095               	.LM769:
 6096               	/* #APP */
 6097               	 ;  555 "E:\ELE542-Lab\uCOSII\uC-OSII\SOFTWARE\uCOS-II\SOURCE/os_flag.c" 1
 6098 19fe 0F91      		POP  R16
 6099               	 ;  0 "" 2
 6100               	 ;  555 "E:\ELE542-Lab\uCOSII\uC-OSII\SOFTWARE\uCOS-II\SOURCE/os_flag.c" 1
 6101 1a00 0FBF      		OUT  0x3F,R16
 6102               	 ;  0 "" 2
 6103               	 ;  555 "E:\ELE542-Lab\uCOSII\uC-OSII\SOFTWARE\uCOS-II\SOURCE/os_flag.c" 1
 6104 1a02 0F91      		POP  R16
 6105               	 ;  0 "" 2
 6106               	/* #NOAPP */
 6107 1a04 00C0      		rjmp .L333
 6108               	.L360:
 6109               	.LM770:
 6110 1a06 D701      		movw r26,r14
 6111 1a08 1396      		adiw r26,3
 6112 1a0a 9C91      		ld r25,X
 6113 1a0c 862F      		mov r24,r22
 6114               	.LVL401:
 6115 1a0e 8923      		and r24,r25
 6116               	.LM771:
 6117 1a10 01F0      		breq .L334
 6118               	.LM772:
 6119 1a12 BB85      		ldd r27,Y+11
 6120 1a14 B130      		cpi r27,lo8(1)
 6121 1a16 01F4      		brne .L335
 6122               	.LM773:
 6123 1a18 8095      		com r24
 6124 1a1a 8923      		and r24,r25
 6125 1a1c F701      		movw r30,r14
 6126 1a1e 8383      		std Z+3,r24
 6127               	.L335:
 6128               	.LM774:
 6129 1a20 D701      		movw r26,r14
 6130 1a22 1396      		adiw r26,3
 6131 1a24 8C91      		ld r24,X
 6132               	.LVL402:
 6133               	.LM775:
 6134               	/* #APP */
 6135               	 ;  566 "E:\ELE542-Lab\uCOSII\uC-OSII\SOFTWARE\uCOS-II\SOURCE/os_flag.c" 1
 6136 1a26 0F91      		POP  R16
 6137               	 ;  0 "" 2
 6138               	 ;  566 "E:\ELE542-Lab\uCOSII\uC-OSII\SOFTWARE\uCOS-II\SOURCE/os_flag.c" 1
 6139 1a28 0FBF      		OUT  0x3F,R16
 6140               	 ;  0 "" 2
 6141               	 ;  566 "E:\ELE542-Lab\uCOSII\uC-OSII\SOFTWARE\uCOS-II\SOURCE/os_flag.c" 1
 6142 1a2a 0F91      		POP  R16
 6143               	 ;  0 "" 2
 6144               	/* #NOAPP */
 6145 1a2c 00C0      		rjmp .L358
 6146               	.LVL403:
 6147               	.L334:
 6148               	.LBB76:
 6149               	.LBB77:
 6150               	.LM776:
 6151 1a2e E091 0000 		lds r30,OSTCBCur
 6152 1a32 F091 0000 		lds r31,(OSTCBCur)+1
 6153 1a36 8585      		ldd r24,Z+13
 6154               	.LVL404:
 6155 1a38 8062      		ori r24,lo8(32)
 6156 1a3a 8587      		std Z+13,r24
 6157               	.LM777:
 6158 1a3c E091 0000 		lds r30,OSTCBCur
 6159 1a40 F091 0000 		lds r31,(OSTCBCur)+1
 6160 1a44 3487      		std Z+12,r19
 6161 1a46 2387      		std Z+11,r18
 6162               	.LM778:
 6163 1a48 6987      		std Y+9,r22
 6164               	.LM779:
 6165 1a4a DA86      		std Y+10,r13
 6166               	.LM780:
 6167 1a4c FE83      		std Y+6,r31
 6168 1a4e ED83      		std Y+5,r30
 6169               	.LM781:
 6170 1a50 D701      		movw r26,r14
 6171 1a52 1196      		adiw r26,1
 6172 1a54 ED91      		ld r30,X+
 6173 1a56 FC91      		ld r31,X
 6174 1a58 1297      		sbiw r26,1+1
 6175 1a5a FA83      		std Y+2,r31
 6176 1a5c E983      		std Y+1,r30
 6177               	.LM782:
 6178 1a5e 1C82      		std Y+4,__zero_reg__
 6179 1a60 1B82      		std Y+3,__zero_reg__
 6180               	.LM783:
 6181 1a62 F886      		std Y+8,r15
 6182 1a64 EF82      		std Y+7,r14
 6183               	.LM784:
 6184 1a66 3097      		sbiw r30,0
 6185 1a68 01F0      		breq .L336
 6186               	.LM785:
 6187 1a6a CE01      		movw r24,r28
 6188 1a6c 0196      		adiw r24,1
 6189 1a6e 9383      		std Z+3,r25
 6190 1a70 8283      		std Z+2,r24
 6191               	.L336:
 6192               	.LM786:
 6193 1a72 CE01      		movw r24,r28
 6194 1a74 0196      		adiw r24,1
 6195 1a76 F701      		movw r30,r14
 6196 1a78 9283      		std Z+2,r25
 6197 1a7a 8183      		std Z+1,r24
 6198               	.LM787:
 6199 1a7c A091 0000 		lds r26,OSTCBCur
 6200 1a80 B091 0000 		lds r27,(OSTCBCur)+1
 6201               	.LM788:
 6202 1a84 5096      		adiw r26,16
 6203 1a86 EC91      		ld r30,X
 6204 1a88 5097      		sbiw r26,16
 6205 1a8a F0E0      		ldi r31,lo8(0)
 6206 1a8c E050      		subi r30,lo8(-(OSRdyTbl))
 6207 1a8e F040      		sbci r31,hi8(-(OSRdyTbl))
 6208 1a90 5196      		adiw r26,17
 6209 1a92 8C91      		ld r24,X
 6210 1a94 5197      		sbiw r26,17
 6211 1a96 8095      		com r24
 6212 1a98 9081      		ld r25,Z
 6213 1a9a 8923      		and r24,r25
 6214 1a9c 8083      		st Z,r24
 6215               	.LM789:
 6216 1a9e 8823      		tst r24
 6217 1aa0 01F4      		brne .L337
 6218               	.LM790:
 6219 1aa2 5296      		adiw r26,18
 6220 1aa4 9C91      		ld r25,X
 6221 1aa6 9095      		com r25
 6222 1aa8 8091 0000 		lds r24,OSRdyGrp
 6223 1aac 8923      		and r24,r25
 6224 1aae 8093 0000 		sts OSRdyGrp,r24
 6225               	.L337:
 6226               	.LBE77:
 6227               	.LBE76:
 6228               	.LM791:
 6229               	/* #APP */
 6230               	 ;  571 "E:\ELE542-Lab\uCOSII\uC-OSII\SOFTWARE\uCOS-II\SOURCE/os_flag.c" 1
 6231 1ab2 0F91      		POP  R16
 6232               	 ;  0 "" 2
 6233               	 ;  571 "E:\ELE542-Lab\uCOSII\uC-OSII\SOFTWARE\uCOS-II\SOURCE/os_flag.c" 1
 6234 1ab4 0FBF      		OUT  0x3F,R16
 6235               	 ;  0 "" 2
 6236               	 ;  571 "E:\ELE542-Lab\uCOSII\uC-OSII\SOFTWARE\uCOS-II\SOURCE/os_flag.c" 1
 6237 1ab6 0F91      		POP  R16
 6238               	 ;  0 "" 2
 6239               	/* #NOAPP */
 6240 1ab8 00C0      		rjmp .L333
 6241               	.L325:
 6242               	.LM792:
 6243 1aba D701      		movw r26,r14
 6244 1abc 1396      		adiw r26,3
 6245 1abe 9C91      		ld r25,X
 6246 1ac0 892F      		mov r24,r25
 6247 1ac2 8095      		com r24
 6248 1ac4 8623      		and r24,r22
 6249               	.LM793:
 6250 1ac6 8617      		cp r24,r22
 6251 1ac8 01F4      		brne .L338
 6252               	.LM794:
 6253 1aca BB85      		ldd r27,Y+11
 6254 1acc B130      		cpi r27,lo8(1)
 6255 1ace 01F4      		brne .L339
 6256               	.LM795:
 6257 1ad0 962B      		or r25,r22
 6258 1ad2 F701      		movw r30,r14
 6259 1ad4 9383      		std Z+3,r25
 6260               	.L339:
 6261               	.LM796:
 6262 1ad6 D701      		movw r26,r14
 6263 1ad8 1396      		adiw r26,3
 6264 1ada 8C91      		ld r24,X
 6265               	.LVL405:
 6266               	.LM797:
 6267               	/* #APP */
 6268               	 ;  583 "E:\ELE542-Lab\uCOSII\uC-OSII\SOFTWARE\uCOS-II\SOURCE/os_flag.c" 1
 6269 1adc 0F91      		POP  R16
 6270               	 ;  0 "" 2
 6271               	 ;  583 "E:\ELE542-Lab\uCOSII\uC-OSII\SOFTWARE\uCOS-II\SOURCE/os_flag.c" 1
 6272 1ade 0FBF      		OUT  0x3F,R16
 6273               	 ;  0 "" 2
 6274               	 ;  583 "E:\ELE542-Lab\uCOSII\uC-OSII\SOFTWARE\uCOS-II\SOURCE/os_flag.c" 1
 6275 1ae0 0F91      		POP  R16
 6276               	 ;  0 "" 2
 6277               	/* #NOAPP */
 6278 1ae2 00C0      		rjmp .L358
 6279               	.LVL406:
 6280               	.L338:
 6281               	.LBB78:
 6282               	.LBB79:
 6283               	.LM798:
 6284 1ae4 E091 0000 		lds r30,OSTCBCur
 6285 1ae8 F091 0000 		lds r31,(OSTCBCur)+1
 6286 1aec 8585      		ldd r24,Z+13
 6287 1aee 8062      		ori r24,lo8(32)
 6288 1af0 8587      		std Z+13,r24
 6289               	.LM799:
 6290 1af2 E091 0000 		lds r30,OSTCBCur
 6291 1af6 F091 0000 		lds r31,(OSTCBCur)+1
 6292 1afa 3487      		std Z+12,r19
 6293 1afc 2387      		std Z+11,r18
 6294               	.LM800:
 6295 1afe 6987      		std Y+9,r22
 6296               	.LM801:
 6297 1b00 1A86      		std Y+10,__zero_reg__
 6298               	.LM802:
 6299 1b02 FE83      		std Y+6,r31
 6300 1b04 ED83      		std Y+5,r30
 6301               	.LM803:
 6302 1b06 D701      		movw r26,r14
 6303 1b08 1196      		adiw r26,1
 6304 1b0a ED91      		ld r30,X+
 6305 1b0c FC91      		ld r31,X
 6306 1b0e 1297      		sbiw r26,1+1
 6307 1b10 FA83      		std Y+2,r31
 6308 1b12 E983      		std Y+1,r30
 6309               	.LM804:
 6310 1b14 1C82      		std Y+4,__zero_reg__
 6311 1b16 1B82      		std Y+3,__zero_reg__
 6312               	.LM805:
 6313 1b18 F886      		std Y+8,r15
 6314 1b1a EF82      		std Y+7,r14
 6315               	.LM806:
 6316 1b1c 3097      		sbiw r30,0
 6317 1b1e 01F0      		breq .L340
 6318               	.LM807:
 6319 1b20 CE01      		movw r24,r28
 6320 1b22 0196      		adiw r24,1
 6321 1b24 9383      		std Z+3,r25
 6322 1b26 8283      		std Z+2,r24
 6323               	.L340:
 6324               	.LM808:
 6325 1b28 CE01      		movw r24,r28
 6326 1b2a 0196      		adiw r24,1
 6327 1b2c F701      		movw r30,r14
 6328 1b2e 9283      		std Z+2,r25
 6329 1b30 8183      		std Z+1,r24
 6330               	.LM809:
 6331 1b32 A091 0000 		lds r26,OSTCBCur
 6332 1b36 B091 0000 		lds r27,(OSTCBCur)+1
 6333               	.LM810:
 6334 1b3a 5096      		adiw r26,16
 6335 1b3c EC91      		ld r30,X
 6336 1b3e 5097      		sbiw r26,16
 6337 1b40 F0E0      		ldi r31,lo8(0)
 6338 1b42 E050      		subi r30,lo8(-(OSRdyTbl))
 6339 1b44 F040      		sbci r31,hi8(-(OSRdyTbl))
 6340 1b46 5196      		adiw r26,17
 6341 1b48 8C91      		ld r24,X
 6342 1b4a 5197      		sbiw r26,17
 6343 1b4c 8095      		com r24
 6344 1b4e 9081      		ld r25,Z
 6345 1b50 8923      		and r24,r25
 6346 1b52 8083      		st Z,r24
 6347               	.LM811:
 6348 1b54 8823      		tst r24
 6349 1b56 01F4      		brne .L341
 6350               	.LM812:
 6351 1b58 5296      		adiw r26,18
 6352 1b5a 9C91      		ld r25,X
 6353 1b5c 9095      		com r25
 6354 1b5e 8091 0000 		lds r24,OSRdyGrp
 6355 1b62 8923      		and r24,r25
 6356 1b64 8093 0000 		sts OSRdyGrp,r24
 6357               	.L341:
 6358               	.LBE79:
 6359               	.LBE78:
 6360               	.LM813:
 6361               	/* #APP */
 6362               	 ;  588 "E:\ELE542-Lab\uCOSII\uC-OSII\SOFTWARE\uCOS-II\SOURCE/os_flag.c" 1
 6363 1b68 0F91      		POP  R16
 6364               	 ;  0 "" 2
 6365               	 ;  588 "E:\ELE542-Lab\uCOSII\uC-OSII\SOFTWARE\uCOS-II\SOURCE/os_flag.c" 1
 6366 1b6a 0FBF      		OUT  0x3F,R16
 6367               	 ;  0 "" 2
 6368               	 ;  588 "E:\ELE542-Lab\uCOSII\uC-OSII\SOFTWARE\uCOS-II\SOURCE/os_flag.c" 1
 6369 1b6c 0F91      		POP  R16
 6370               	 ;  0 "" 2
 6371               	/* #NOAPP */
 6372 1b6e 00C0      		rjmp .L333
 6373               	.L326:
 6374               	.LM814:
 6375 1b70 D701      		movw r26,r14
 6376 1b72 1396      		adiw r26,3
 6377 1b74 9C91      		ld r25,X
 6378 1b76 892F      		mov r24,r25
 6379               	.LVL407:
 6380 1b78 8095      		com r24
 6381 1b7a 8623      		and r24,r22
 6382               	.LM815:
 6383 1b7c 01F0      		breq .L342
 6384               	.LM816:
 6385 1b7e BB85      		ldd r27,Y+11
 6386 1b80 B130      		cpi r27,lo8(1)
 6387 1b82 01F4      		brne .L343
 6388               	.LM817:
 6389 1b84 892B      		or r24,r25
 6390 1b86 F701      		movw r30,r14
 6391 1b88 8383      		std Z+3,r24
 6392               	.L343:
 6393               	.LM818:
 6394 1b8a D701      		movw r26,r14
 6395 1b8c 1396      		adiw r26,3
 6396 1b8e 8C91      		ld r24,X
 6397               	.LVL408:
 6398               	.LM819:
 6399               	/* #APP */
 6400               	 ;  599 "E:\ELE542-Lab\uCOSII\uC-OSII\SOFTWARE\uCOS-II\SOURCE/os_flag.c" 1
 6401 1b90 0F91      		POP  R16
 6402               	 ;  0 "" 2
 6403               	 ;  599 "E:\ELE542-Lab\uCOSII\uC-OSII\SOFTWARE\uCOS-II\SOURCE/os_flag.c" 1
 6404 1b92 0FBF      		OUT  0x3F,R16
 6405               	 ;  0 "" 2
 6406               	 ;  599 "E:\ELE542-Lab\uCOSII\uC-OSII\SOFTWARE\uCOS-II\SOURCE/os_flag.c" 1
 6407 1b94 0F91      		POP  R16
 6408               	 ;  0 "" 2
 6409               	/* #NOAPP */
 6410 1b96 00C0      		rjmp .L358
 6411               	.LVL409:
 6412               	.L342:
 6413               	.LBB80:
 6414               	.LBB81:
 6415               	.LM820:
 6416 1b98 E091 0000 		lds r30,OSTCBCur
 6417 1b9c F091 0000 		lds r31,(OSTCBCur)+1
 6418 1ba0 8585      		ldd r24,Z+13
 6419               	.LVL410:
 6420 1ba2 8062      		ori r24,lo8(32)
 6421 1ba4 8587      		std Z+13,r24
 6422               	.LM821:
 6423 1ba6 E091 0000 		lds r30,OSTCBCur
 6424 1baa F091 0000 		lds r31,(OSTCBCur)+1
 6425 1bae 3487      		std Z+12,r19
 6426 1bb0 2387      		std Z+11,r18
 6427               	.LM822:
 6428 1bb2 6987      		std Y+9,r22
 6429               	.LM823:
 6430 1bb4 DA86      		std Y+10,r13
 6431               	.LM824:
 6432 1bb6 FE83      		std Y+6,r31
 6433 1bb8 ED83      		std Y+5,r30
 6434               	.LM825:
 6435 1bba D701      		movw r26,r14
 6436 1bbc 1196      		adiw r26,1
 6437 1bbe ED91      		ld r30,X+
 6438 1bc0 FC91      		ld r31,X
 6439 1bc2 1297      		sbiw r26,1+1
 6440 1bc4 FA83      		std Y+2,r31
 6441 1bc6 E983      		std Y+1,r30
 6442               	.LM826:
 6443 1bc8 1C82      		std Y+4,__zero_reg__
 6444 1bca 1B82      		std Y+3,__zero_reg__
 6445               	.LM827:
 6446 1bcc F886      		std Y+8,r15
 6447 1bce EF82      		std Y+7,r14
 6448               	.LM828:
 6449 1bd0 3097      		sbiw r30,0
 6450 1bd2 01F0      		breq .L344
 6451               	.LM829:
 6452 1bd4 CE01      		movw r24,r28
 6453 1bd6 0196      		adiw r24,1
 6454 1bd8 9383      		std Z+3,r25
 6455 1bda 8283      		std Z+2,r24
 6456               	.L344:
 6457               	.LM830:
 6458 1bdc CE01      		movw r24,r28
 6459 1bde 0196      		adiw r24,1
 6460 1be0 F701      		movw r30,r14
 6461 1be2 9283      		std Z+2,r25
 6462 1be4 8183      		std Z+1,r24
 6463               	.LM831:
 6464 1be6 A091 0000 		lds r26,OSTCBCur
 6465 1bea B091 0000 		lds r27,(OSTCBCur)+1
 6466               	.LM832:
 6467 1bee 5096      		adiw r26,16
 6468 1bf0 EC91      		ld r30,X
 6469 1bf2 5097      		sbiw r26,16
 6470 1bf4 F0E0      		ldi r31,lo8(0)
 6471 1bf6 E050      		subi r30,lo8(-(OSRdyTbl))
 6472 1bf8 F040      		sbci r31,hi8(-(OSRdyTbl))
 6473 1bfa 5196      		adiw r26,17
 6474 1bfc 8C91      		ld r24,X
 6475 1bfe 5197      		sbiw r26,17
 6476 1c00 8095      		com r24
 6477 1c02 9081      		ld r25,Z
 6478 1c04 8923      		and r24,r25
 6479 1c06 8083      		st Z,r24
 6480               	.LM833:
 6481 1c08 8823      		tst r24
 6482 1c0a 01F4      		brne .L345
 6483               	.LM834:
 6484 1c0c 5296      		adiw r26,18
 6485 1c0e 9C91      		ld r25,X
 6486 1c10 9095      		com r25
 6487 1c12 8091 0000 		lds r24,OSRdyGrp
 6488 1c16 8923      		and r24,r25
 6489 1c18 8093 0000 		sts OSRdyGrp,r24
 6490               	.L345:
 6491               	.LBE81:
 6492               	.LBE80:
 6493               	.LM835:
 6494               	/* #APP */
 6495               	 ;  604 "E:\ELE542-Lab\uCOSII\uC-OSII\SOFTWARE\uCOS-II\SOURCE/os_flag.c" 1
 6496 1c1c 0F91      		POP  R16
 6497               	 ;  0 "" 2
 6498               	 ;  604 "E:\ELE542-Lab\uCOSII\uC-OSII\SOFTWARE\uCOS-II\SOURCE/os_flag.c" 1
 6499 1c1e 0FBF      		OUT  0x3F,R16
 6500               	 ;  0 "" 2
 6501               	 ;  604 "E:\ELE542-Lab\uCOSII\uC-OSII\SOFTWARE\uCOS-II\SOURCE/os_flag.c" 1
 6502 1c20 0F91      		POP  R16
 6503               	 ;  0 "" 2
 6504               	/* #NOAPP */
 6505 1c22 00C0      		rjmp .L333
 6506               	.L354:
 6507               	.LM836:
 6508               	/* #APP */
 6509               	 ;  610 "E:\ELE542-Lab\uCOSII\uC-OSII\SOFTWARE\uCOS-II\SOURCE/os_flag.c" 1
 6510 1c24 0F91      		POP  R16
 6511               	 ;  0 "" 2
 6512               	 ;  610 "E:\ELE542-Lab\uCOSII\uC-OSII\SOFTWARE\uCOS-II\SOURCE/os_flag.c" 1
 6513 1c26 0FBF      		OUT  0x3F,R16
 6514               	 ;  0 "" 2
 6515               	 ;  610 "E:\ELE542-Lab\uCOSII\uC-OSII\SOFTWARE\uCOS-II\SOURCE/os_flag.c" 1
 6516 1c28 0F91      		POP  R16
 6517               	 ;  0 "" 2
 6518               	.LM837:
 6519               	/* #NOAPP */
 6520 1c2a 87E9      		ldi r24,lo8(-105)
 6521 1c2c 00C0      		rjmp .L356
 6522               	.L333:
 6523               	.LM838:
 6524 1c2e 0E94 0000 		call OS_Sched
 6525               	.LVL411:
 6526               	.LM839:
 6527               	/* #APP */
 6528               	 ;  616 "E:\ELE542-Lab\uCOSII\uC-OSII\SOFTWARE\uCOS-II\SOURCE/os_flag.c" 1
 6529 1c32 0F93      		PUSH  R16
 6530               	 ;  0 "" 2
 6531               	 ;  616 "E:\ELE542-Lab\uCOSII\uC-OSII\SOFTWARE\uCOS-II\SOURCE/os_flag.c" 1
 6532 1c34 0FB7      		IN    R16,0x3F
 6533               	 ;  0 "" 2
 6534               	 ;  616 "E:\ELE542-Lab\uCOSII\uC-OSII\SOFTWARE\uCOS-II\SOURCE/os_flag.c" 1
 6535 1c36 0F93      		PUSH  R16
 6536               	 ;  0 "" 2
 6537               	 ;  616 "E:\ELE542-Lab\uCOSII\uC-OSII\SOFTWARE\uCOS-II\SOURCE/os_flag.c" 1
 6538 1c38 F894      		cli
 6539               	 ;  0 "" 2
 6540               	.LM840:
 6541               	/* #NOAPP */
 6542 1c3a E091 0000 		lds r30,OSTCBCur
 6543 1c3e F091 0000 		lds r31,(OSTCBCur)+1
 6544 1c42 8585      		ldd r24,Z+13
 6545 1c44 85FF      		sbrs r24,5
 6546 1c46 00C0      		rjmp .L346
 6547               	.LBB82:
 6548               	.LBB83:
 6549               	.LM841:
 6550 1c48 EB81      		ldd r30,Y+3
 6551 1c4a FC81      		ldd r31,Y+4
 6552               	.LVL412:
 6553               	.LM842:
 6554 1c4c A981      		ldd r26,Y+1
 6555 1c4e BA81      		ldd r27,Y+2
 6556               	.LVL413:
 6557               	.LM843:
 6558 1c50 3097      		sbiw r30,0
 6559 1c52 01F4      		brne .L347
 6560               	.LM844:
 6561 1c54 EF81      		ldd r30,Y+7
 6562 1c56 F885      		ldd r31,Y+8
 6563               	.LVL414:
 6564 1c58 B283      		std Z+2,r27
 6565 1c5a A183      		std Z+1,r26
 6566               	.LM845:
 6567 1c5c 1097      		sbiw r26,0
 6568 1c5e 01F0      		breq .L348
 6569               	.LM846:
 6570 1c60 1396      		adiw r26,2+1
 6571 1c62 1C92      		st X,__zero_reg__
 6572 1c64 1E92      		st -X,__zero_reg__
 6573 1c66 1297      		sbiw r26,2
 6574 1c68 00C0      		rjmp .L348
 6575               	.LVL415:
 6576               	.L347:
 6577               	.LM847:
 6578 1c6a B183      		std Z+1,r27
 6579 1c6c A083      		st Z,r26
 6580               	.LM848:
 6581 1c6e 1097      		sbiw r26,0
 6582 1c70 01F0      		breq .L348
 6583               	.LM849:
 6584 1c72 1396      		adiw r26,2+1
 6585 1c74 FC93      		st X,r31
 6586 1c76 EE93      		st -X,r30
 6587 1c78 1297      		sbiw r26,2
 6588               	.L348:
 6589               	.LBE83:
 6590               	.LBE82:
 6591               	.LM850:
 6592 1c7a E091 0000 		lds r30,OSTCBCur
 6593 1c7e F091 0000 		lds r31,(OSTCBCur)+1
 6594               	.LVL416:
 6595 1c82 1586      		std Z+13,__zero_reg__
 6596               	.LM851:
 6597               	/* #APP */
 6598               	 ;  620 "E:\ELE542-Lab\uCOSII\uC-OSII\SOFTWARE\uCOS-II\SOURCE/os_flag.c" 1
 6599 1c84 0F91      		POP  R16
 6600               	 ;  0 "" 2
 6601               	 ;  620 "E:\ELE542-Lab\uCOSII\uC-OSII\SOFTWARE\uCOS-II\SOURCE/os_flag.c" 1
 6602 1c86 0FBF      		OUT  0x3F,R16
 6603               	 ;  0 "" 2
 6604               	 ;  620 "E:\ELE542-Lab\uCOSII\uC-OSII\SOFTWARE\uCOS-II\SOURCE/os_flag.c" 1
 6605 1c88 0F91      		POP  R16
 6606               	 ;  0 "" 2
 6607               	.LM852:
 6608               	/* #NOAPP */
 6609 1c8a 8AE0      		ldi r24,lo8(10)
 6610               	.L359:
 6611 1c8c F801      		movw r30,r16
 6612               	.LVL417:
 6613 1c8e 8083      		st Z,r24
 6614 1c90 00C0      		rjmp .L357
 6615               	.LVL418:
 6616               	.L346:
 6617               	.LM853:
 6618 1c92 2B85      		ldd r18,Y+11
 6619 1c94 2130      		cpi r18,lo8(1)
 6620 1c96 01F4      		brne .L349
 6621               	.LM854:
 6622 1c98 81E0      		ldi r24,lo8(1)
 6623 1c9a 8D15      		cp r24,r13
 6624 1c9c 00F4      		brsh .L351
 6625 1c9e A3E0      		ldi r26,lo8(3)
 6626 1ca0 AD15      		cp r26,r13
 6627 1ca2 00F0      		brlo .L350
 6628               	.LM855:
 6629 1ca4 9285      		ldd r25,Z+10
 6630 1ca6 9095      		com r25
 6631 1ca8 F701      		movw r30,r14
 6632 1caa 8381      		ldd r24,Z+3
 6633 1cac 8923      		and r24,r25
 6634 1cae 8383      		std Z+3,r24
 6635 1cb0 00C0      		rjmp .L349
 6636               	.L351:
 6637               	.LM856:
 6638 1cb2 D701      		movw r26,r14
 6639 1cb4 1396      		adiw r26,3
 6640 1cb6 8C91      		ld r24,X
 6641 1cb8 1397      		sbiw r26,3
 6642 1cba 9285      		ldd r25,Z+10
 6643 1cbc 892B      		or r24,r25
 6644 1cbe 1396      		adiw r26,3
 6645 1cc0 8C93      		st X,r24
 6646 1cc2 00C0      		rjmp .L349
 6647               	.L350:
 6648               	.LM857:
 6649               	/* #APP */
 6650               	 ;  638 "E:\ELE542-Lab\uCOSII\uC-OSII\SOFTWARE\uCOS-II\SOURCE/os_flag.c" 1
 6651 1cc4 0F91      		POP  R16
 6652               	 ;  0 "" 2
 6653               	 ;  638 "E:\ELE542-Lab\uCOSII\uC-OSII\SOFTWARE\uCOS-II\SOURCE/os_flag.c" 1
 6654 1cc6 0FBF      		OUT  0x3F,R16
 6655               	 ;  0 "" 2
 6656               	 ;  638 "E:\ELE542-Lab\uCOSII\uC-OSII\SOFTWARE\uCOS-II\SOURCE/os_flag.c" 1
 6657 1cc8 0F91      		POP  R16
 6658               	 ;  0 "" 2
 6659               	.LM858:
 6660               	/* #NOAPP */
 6661 1cca 87E9      		ldi r24,lo8(-105)
 6662 1ccc 00C0      		rjmp .L359
 6663               	.L349:
 6664               	.LM859:
 6665 1cce D701      		movw r26,r14
 6666 1cd0 1396      		adiw r26,3
 6667 1cd2 8C91      		ld r24,X
 6668               	.LVL419:
 6669               	.LM860:
 6670               	/* #APP */
 6671               	 ;  644 "E:\ELE542-Lab\uCOSII\uC-OSII\SOFTWARE\uCOS-II\SOURCE/os_flag.c" 1
 6672 1cd4 0F91      		POP  R16
 6673               	 ;  0 "" 2
 6674               	 ;  644 "E:\ELE542-Lab\uCOSII\uC-OSII\SOFTWARE\uCOS-II\SOURCE/os_flag.c" 1
 6675 1cd6 0FBF      		OUT  0x3F,R16
 6676               	 ;  0 "" 2
 6677               	 ;  644 "E:\ELE542-Lab\uCOSII\uC-OSII\SOFTWARE\uCOS-II\SOURCE/os_flag.c" 1
 6678 1cd8 0F91      		POP  R16
 6679               	 ;  0 "" 2
 6680               	.LVL420:
 6681               	/* #NOAPP */
 6682               	.L358:
 6683               	.LM861:
 6684 1cda F801      		movw r30,r16
 6685               	.LVL421:
 6686 1cdc 1082      		st Z,__zero_reg__
 6687               	.LVL422:
 6688               	.L320:
 6689               	.LVL423:
 6690               	/* epilogue start */
 6691               	.LM862:
 6692 1cde 2B96      		adiw r28,11
 6693 1ce0 0FB6      		in __tmp_reg__,__SREG__
 6694 1ce2 F894      		cli
 6695 1ce4 DEBF      		out __SP_H__,r29
 6696 1ce6 0FBE      		out __SREG__,__tmp_reg__
 6697 1ce8 CDBF      		out __SP_L__,r28
 6698 1cea CF91      		pop r28
 6699 1cec DF91      		pop r29
 6700 1cee 1F91      		pop r17
 6701 1cf0 0F91      		pop r16
 6702               	.LVL424:
 6703 1cf2 FF90      		pop r15
 6704 1cf4 EF90      		pop r14
 6705               	.LVL425:
 6706 1cf6 DF90      		pop r13
 6707               	.LVL426:
 6708 1cf8 0895      		ret
 6709               	.LFE22:
 6711               	.global	OSTimeTick
 6713               	OSTimeTick:
 6714               	.LFB6:
 6715               	.LM863:
 6716               	/* prologue: function */
 6717               	/* frame size = 0 */
 6718               	.LM864:
 6719 1cfa 0E94 0000 		call OSTimeTickHook
 6720               	.LM865:
 6721 1cfe 8091 0000 		lds r24,OSRunning
 6722 1d02 8130      		cpi r24,lo8(1)
 6723 1d04 01F0      		breq .+2
 6724 1d06 00C0      		rjmp .L367
 6725               	.LM866:
 6726 1d08 A091 0000 		lds r26,OSTCBList
 6727 1d0c B091 0000 		lds r27,(OSTCBList)+1
 6728               	.LVL427:
 6729 1d10 2091 0000 		lds r18,OSRdyGrp
 6730               	.LM867:
 6731 1d14 41E0      		ldi r20,lo8(1)
 6732 1d16 50E0      		ldi r21,hi8(1)
 6733 1d18 00C0      		rjmp .L363
 6734               	.L366:
 6735               	.LM868:
 6736               	/* #APP */
 6737               	 ;  692 "E:\ELE542-Lab\uCOSII\uC-OSII\SOFTWARE\uCOS-II\SOURCE/os_core.c" 1
 6738 1d1a 0F93      		PUSH  R16
 6739               	 ;  0 "" 2
 6740               	 ;  692 "E:\ELE542-Lab\uCOSII\uC-OSII\SOFTWARE\uCOS-II\SOURCE/os_core.c" 1
 6741 1d1c 0FB7      		IN    R16,0x3F
 6742               	 ;  0 "" 2
 6743               	 ;  692 "E:\ELE542-Lab\uCOSII\uC-OSII\SOFTWARE\uCOS-II\SOURCE/os_core.c" 1
 6744 1d1e 0F93      		PUSH  R16
 6745               	 ;  0 "" 2
 6746               	 ;  692 "E:\ELE542-Lab\uCOSII\uC-OSII\SOFTWARE\uCOS-II\SOURCE/os_core.c" 1
 6747 1d20 F894      		cli
 6748               	 ;  0 "" 2
 6749               	.LM869:
 6750               	/* #NOAPP */
 6751 1d22 1B96      		adiw r26,11
 6752 1d24 8D91      		ld r24,X+
 6753 1d26 9C91      		ld r25,X
 6754 1d28 1C97      		sbiw r26,11+1
 6755 1d2a 0097      		sbiw r24,0
 6756 1d2c 01F0      		breq .L364
 6757               	.LM870:
 6758 1d2e 0197      		sbiw r24,1
 6759 1d30 1C96      		adiw r26,11+1
 6760 1d32 9C93      		st X,r25
 6761 1d34 8E93      		st -X,r24
 6762 1d36 1B97      		sbiw r26,11
 6763 1d38 892B      		or r24,r25
 6764 1d3a 01F4      		brne .L364
 6765               	.LM871:
 6766 1d3c 1D96      		adiw r26,13
 6767 1d3e 8C91      		ld r24,X
 6768 1d40 1D97      		sbiw r26,13
 6769 1d42 83FD      		sbrc r24,3
 6770 1d44 00C0      		rjmp .L365
 6771               	.LM872:
 6772 1d46 5296      		adiw r26,18
 6773 1d48 8C91      		ld r24,X
 6774 1d4a 5297      		sbiw r26,18
 6775 1d4c 282B      		or r18,r24
 6776               	.LM873:
 6777 1d4e 5096      		adiw r26,16
 6778 1d50 EC91      		ld r30,X
 6779 1d52 5097      		sbiw r26,16
 6780 1d54 F0E0      		ldi r31,lo8(0)
 6781 1d56 E050      		subi r30,lo8(-(OSRdyTbl))
 6782 1d58 F040      		sbci r31,hi8(-(OSRdyTbl))
 6783 1d5a 8081      		ld r24,Z
 6784 1d5c 5196      		adiw r26,17
 6785 1d5e 9C91      		ld r25,X
 6786 1d60 5197      		sbiw r26,17
 6787 1d62 892B      		or r24,r25
 6788 1d64 8083      		st Z,r24
 6789 1d66 00C0      		rjmp .L364
 6790               	.L365:
 6791               	.LM874:
 6792 1d68 1C96      		adiw r26,11+1
 6793 1d6a 5C93      		st X,r21
 6794 1d6c 4E93      		st -X,r20
 6795 1d6e 1B97      		sbiw r26,11
 6796               	.L364:
 6797               	.LM875:
 6798 1d70 1296      		adiw r26,2
 6799 1d72 0D90      		ld __tmp_reg__,X+
 6800 1d74 BC91      		ld r27,X
 6801 1d76 A02D      		mov r26,__tmp_reg__
 6802               	.LM876:
 6803               	/* #APP */
 6804               	 ;  704 "E:\ELE542-Lab\uCOSII\uC-OSII\SOFTWARE\uCOS-II\SOURCE/os_core.c" 1
 6805 1d78 0F91      		POP  R16
 6806               	 ;  0 "" 2
 6807               	 ;  704 "E:\ELE542-Lab\uCOSII\uC-OSII\SOFTWARE\uCOS-II\SOURCE/os_core.c" 1
 6808 1d7a 0FBF      		OUT  0x3F,R16
 6809               	 ;  0 "" 2
 6810               	 ;  704 "E:\ELE542-Lab\uCOSII\uC-OSII\SOFTWARE\uCOS-II\SOURCE/os_core.c" 1
 6811 1d7c 0F91      		POP  R16
 6812               	 ;  0 "" 2
 6813               	/* #NOAPP */
 6814               	.L363:
 6815               	.LM877:
 6816 1d7e 1E96      		adiw r26,14
 6817 1d80 8C91      		ld r24,X
 6818 1d82 1E97      		sbiw r26,14
 6819 1d84 8F30      		cpi r24,lo8(15)
 6820 1d86 01F4      		brne .L366
 6821 1d88 2093 0000 		sts OSRdyGrp,r18
 6822               	.L367:
 6823 1d8c 0895      		ret
 6824               	.LFE6:
 6826               	.global	OSStart
 6828               	OSStart:
 6829               	.LFB5:
 6830               	.LM878:
 6831               	/* prologue: function */
 6832               	/* frame size = 0 */
 6833               	.LM879:
 6834 1d8e 8091 0000 		lds r24,OSRunning
 6835 1d92 8823      		tst r24
 6836 1d94 01F4      		brne .L370
 6837               	.LM880:
 6838 1d96 E091 0000 		lds r30,OSRdyGrp
 6839 1d9a F0E0      		ldi r31,lo8(0)
 6840 1d9c E050      		subi r30,lo8(-(OSUnMapTbl))
 6841 1d9e F040      		sbci r31,hi8(-(OSUnMapTbl))
 6842 1da0 A081      		ld r26,Z
 6843               	.LVL428:
 6844               	.LM881:
 6845 1da2 EA2F      		mov r30,r26
 6846 1da4 F0E0      		ldi r31,lo8(0)
 6847               	.LVL429:
 6848 1da6 E050      		subi r30,lo8(-(OSRdyTbl))
 6849 1da8 F040      		sbci r31,hi8(-(OSRdyTbl))
 6850               	.LVL430:
 6851 1daa E081      		ld r30,Z
 6852               	.LVL431:
 6853 1dac F0E0      		ldi r31,lo8(0)
 6854               	.LVL432:
 6855 1dae E050      		subi r30,lo8(-(OSUnMapTbl))
 6856 1db0 F040      		sbci r31,hi8(-(OSUnMapTbl))
 6857 1db2 AA0F      		lsl r26
 6858 1db4 AA0F      		lsl r26
 6859 1db6 AA0F      		lsl r26
 6860               	.LVL433:
 6861 1db8 8081      		ld r24,Z
 6862 1dba A80F      		add r26,r24
 6863 1dbc A093 0000 		sts OSPrioHighRdy,r26
 6864               	.LM882:
 6865 1dc0 A093 0000 		sts OSPrioCur,r26
 6866               	.LM883:
 6867 1dc4 B0E0      		ldi r27,lo8(0)
 6868 1dc6 AA0F      		lsl r26
 6869 1dc8 BB1F      		rol r27
 6870 1dca A050      		subi r26,lo8(-(OSTCBPrioTbl))
 6871 1dcc B040      		sbci r27,hi8(-(OSTCBPrioTbl))
 6872 1dce 8D91      		ld r24,X+
 6873 1dd0 9C91      		ld r25,X
 6874 1dd2 9093 0000 		sts (OSTCBHighRdy)+1,r25
 6875 1dd6 8093 0000 		sts OSTCBHighRdy,r24
 6876               	.LM884:
 6877 1dda 9093 0000 		sts (OSTCBCur)+1,r25
 6878 1dde 8093 0000 		sts OSTCBCur,r24
 6879               	.LM885:
 6880 1de2 0E94 0000 		call OSStartHighRdy
 6881               	.L370:
 6882 1de6 0895      		ret
 6883               	.LFE5:
 6885               	.global	OSIntExit
 6887               	OSIntExit:
 6888               	.LFB4:
 6889               	.LM886:
 6890               	/* prologue: function */
 6891               	/* frame size = 0 */
 6892               	.LM887:
 6893 1de8 8091 0000 		lds r24,OSRunning
 6894 1dec 8130      		cpi r24,lo8(1)
 6895 1dee 01F0      		breq .+2
 6896 1df0 00C0      		rjmp .L375
 6897               	.LM888:
 6898               	/* #APP */
 6899               	 ;  455 "E:\ELE542-Lab\uCOSII\uC-OSII\SOFTWARE\uCOS-II\SOURCE/os_core.c" 1
 6900 1df2 0F93      		PUSH  R16
 6901               	 ;  0 "" 2
 6902               	 ;  455 "E:\ELE542-Lab\uCOSII\uC-OSII\SOFTWARE\uCOS-II\SOURCE/os_core.c" 1
 6903 1df4 0FB7      		IN    R16,0x3F
 6904               	 ;  0 "" 2
 6905               	 ;  455 "E:\ELE542-Lab\uCOSII\uC-OSII\SOFTWARE\uCOS-II\SOURCE/os_core.c" 1
 6906 1df6 0F93      		PUSH  R16
 6907               	 ;  0 "" 2
 6908               	 ;  455 "E:\ELE542-Lab\uCOSII\uC-OSII\SOFTWARE\uCOS-II\SOURCE/os_core.c" 1
 6909 1df8 F894      		cli
 6910               	 ;  0 "" 2
 6911               	.LM889:
 6912               	/* #NOAPP */
 6913 1dfa 8091 0000 		lds r24,OSIntNesting
 6914 1dfe 8823      		tst r24
 6915 1e00 01F0      		breq .L373
 6916               	.LM890:
 6917 1e02 8150      		subi r24,lo8(-(-1))
 6918 1e04 8093 0000 		sts OSIntNesting,r24
 6919               	.L373:
 6920               	.LM891:
 6921 1e08 8091 0000 		lds r24,OSIntNesting
 6922 1e0c 8823      		tst r24
 6923 1e0e 01F0      		breq .+2
 6924 1e10 00C0      		rjmp .L374
 6925               	.LM892:
 6926 1e12 8091 0000 		lds r24,OSLockNesting
 6927 1e16 8823      		tst r24
 6928 1e18 01F4      		brne .L374
 6929               	.LM893:
 6930 1e1a E091 0000 		lds r30,OSRdyGrp
 6931 1e1e F0E0      		ldi r31,lo8(0)
 6932 1e20 E050      		subi r30,lo8(-(OSUnMapTbl))
 6933 1e22 F040      		sbci r31,hi8(-(OSUnMapTbl))
 6934 1e24 8081      		ld r24,Z
 6935 1e26 8093 0000 		sts OSIntExitY,r24
 6936               	.LM894:
 6937 1e2a E82F      		mov r30,r24
 6938 1e2c F0E0      		ldi r31,lo8(0)
 6939 1e2e E050      		subi r30,lo8(-(OSRdyTbl))
 6940 1e30 F040      		sbci r31,hi8(-(OSRdyTbl))
 6941 1e32 E081      		ld r30,Z
 6942 1e34 F0E0      		ldi r31,lo8(0)
 6943 1e36 E050      		subi r30,lo8(-(OSUnMapTbl))
 6944 1e38 F040      		sbci r31,hi8(-(OSUnMapTbl))
 6945 1e3a 982F      		mov r25,r24
 6946 1e3c 990F      		lsl r25
 6947 1e3e 990F      		lsl r25
 6948 1e40 990F      		lsl r25
 6949 1e42 8081      		ld r24,Z
 6950 1e44 980F      		add r25,r24
 6951 1e46 9093 0000 		sts OSPrioHighRdy,r25
 6952               	.LM895:
 6953 1e4a 8091 0000 		lds r24,OSPrioCur
 6954 1e4e 9817      		cp r25,r24
 6955 1e50 01F0      		breq .L374
 6956               	.LM896:
 6957 1e52 E92F      		mov r30,r25
 6958 1e54 F0E0      		ldi r31,lo8(0)
 6959 1e56 EE0F      		lsl r30
 6960 1e58 FF1F      		rol r31
 6961 1e5a E050      		subi r30,lo8(-(OSTCBPrioTbl))
 6962 1e5c F040      		sbci r31,hi8(-(OSTCBPrioTbl))
 6963 1e5e 8081      		ld r24,Z
 6964 1e60 9181      		ldd r25,Z+1
 6965 1e62 9093 0000 		sts (OSTCBHighRdy)+1,r25
 6966 1e66 8093 0000 		sts OSTCBHighRdy,r24
 6967               	.LM897:
 6968 1e6a 8091 0000 		lds r24,OSCtxSwCtr
 6969 1e6e 9091 0000 		lds r25,(OSCtxSwCtr)+1
 6970 1e72 A091 0000 		lds r26,(OSCtxSwCtr)+2
 6971 1e76 B091 0000 		lds r27,(OSCtxSwCtr)+3
 6972 1e7a 0196      		adiw r24,1
 6973 1e7c A11D      		adc r26,__zero_reg__
 6974 1e7e B11D      		adc r27,__zero_reg__
 6975 1e80 8093 0000 		sts OSCtxSwCtr,r24
 6976 1e84 9093 0000 		sts (OSCtxSwCtr)+1,r25
 6977 1e88 A093 0000 		sts (OSCtxSwCtr)+2,r26
 6978 1e8c B093 0000 		sts (OSCtxSwCtr)+3,r27
 6979               	.LM898:
 6980 1e90 0E94 0000 		call OSIntCtxSw
 6981               	.L374:
 6982               	.LM899:
 6983               	/* #APP */
 6984               	 ;  473 "E:\ELE542-Lab\uCOSII\uC-OSII\SOFTWARE\uCOS-II\SOURCE/os_core.c" 1
 6985 1e94 0F91      		POP  R16
 6986               	 ;  0 "" 2
 6987               	 ;  473 "E:\ELE542-Lab\uCOSII\uC-OSII\SOFTWARE\uCOS-II\SOURCE/os_core.c" 1
 6988 1e96 0FBF      		OUT  0x3F,R16
 6989               	 ;  0 "" 2
 6990               	 ;  473 "E:\ELE542-Lab\uCOSII\uC-OSII\SOFTWARE\uCOS-II\SOURCE/os_core.c" 1
 6991 1e98 0F91      		POP  R16
 6992               	 ;  0 "" 2
 6993               	/* #NOAPP */
 6994               	.L375:
 6995 1e9a 0895      		ret
 6996               	.LFE4:
 6998               	.global	OSInit
 7000               	OSInit:
 7001               	.LFB2:
 7002               	.LM900:
 7003 1e9c CF93      		push r28
 7004 1e9e DF93      		push r29
 7005               	/* prologue: function */
 7006               	/* frame size = 0 */
 7007               	.LM901:
 7008 1ea0 0E94 0000 		call OSInitHookBegin
 7009               	.LBB84:
 7010               	.LBB85:
 7011               	.LM902:
 7012 1ea4 1092 0000 		sts OSIntNesting,__zero_reg__
 7013               	.LM903:
 7014 1ea8 1092 0000 		sts OSLockNesting,__zero_reg__
 7015               	.LM904:
 7016 1eac 1092 0000 		sts OSTaskCtr,__zero_reg__
 7017               	.LM905:
 7018 1eb0 1092 0000 		sts OSRunning,__zero_reg__
 7019               	.LM906:
 7020 1eb4 1092 0000 		sts OSCtxSwCtr,__zero_reg__
 7021 1eb8 1092 0000 		sts (OSCtxSwCtr)+1,__zero_reg__
 7022 1ebc 1092 0000 		sts (OSCtxSwCtr)+2,__zero_reg__
 7023 1ec0 1092 0000 		sts (OSCtxSwCtr)+3,__zero_reg__
 7024               	.LM907:
 7025 1ec4 1092 0000 		sts OSIdleCtr,__zero_reg__
 7026 1ec8 1092 0000 		sts (OSIdleCtr)+1,__zero_reg__
 7027 1ecc 1092 0000 		sts (OSIdleCtr)+2,__zero_reg__
 7028 1ed0 1092 0000 		sts (OSIdleCtr)+3,__zero_reg__
 7029               	.LBE85:
 7030               	.LBE84:
 7031               	.LBB86:
 7032               	.LBB87:
 7033               	.LM908:
 7034 1ed4 1092 0000 		sts OSRdyGrp,__zero_reg__
 7035               	.LM909:
 7036 1ed8 1092 0000 		sts OSRdyTbl,__zero_reg__
 7037 1edc 1092 0000 		sts OSRdyTbl+1,__zero_reg__
 7038               	.LM910:
 7039 1ee0 1092 0000 		sts OSPrioCur,__zero_reg__
 7040               	.LM911:
 7041 1ee4 1092 0000 		sts OSPrioHighRdy,__zero_reg__
 7042               	.LM912:
 7043 1ee8 1092 0000 		sts (OSTCBHighRdy)+1,__zero_reg__
 7044 1eec 1092 0000 		sts OSTCBHighRdy,__zero_reg__
 7045               	.LM913:
 7046 1ef0 1092 0000 		sts (OSTCBCur)+1,__zero_reg__
 7047 1ef4 1092 0000 		sts OSTCBCur,__zero_reg__
 7048               	.LBE87:
 7049               	.LBE86:
 7050               	.LBB88:
 7051               	.LBB89:
 7052               	.LM914:
 7053 1ef8 A0E0      		ldi r26,lo8(OSTCBTbl)
 7054 1efa B0E0      		ldi r27,hi8(OSTCBTbl)
 7055 1efc 8EEB      		ldi r24,lo8(-66)
 7056 1efe ED01      		movw r28,r26
 7057 1f00 1992      		st Y+,__zero_reg__
 7058 1f02 8A95      	        dec r24
 7059 1f04 01F4      		brne .-6
 7060               	.LM915:
 7061 1f06 80E2      		ldi r24,lo8(32)
 7062 1f08 E0E0      		ldi r30,lo8(OSTCBPrioTbl)
 7063 1f0a F0E0      		ldi r31,hi8(OSTCBPrioTbl)
 7064 1f0c EF01      		movw r28,r30
 7065 1f0e 1992      		st Y+,__zero_reg__
 7066 1f10 8A95      	        dec r24
 7067 1f12 01F4      		brne .-6
 7068 1f14 5396      		adiw r26,19
 7069               	.LVL434:
 7070               	.L377:
 7071               	.LM916:
 7072 1f16 FD01      		movw r30,r26
 7073 1f18 7197      		sbiw r30,17
 7074 1f1a B183      		std Z+1,r27
 7075 1f1c A083      		st Z,r26
 7076               	.LM917:
 7077 1f1e 5396      		adiw r26,19
 7078               	.LM918:
 7079 1f20 E0E0      		ldi r30,hi8(OSTCBTbl+190)
 7080 1f22 A030      		cpi r26,lo8(OSTCBTbl+190)
 7081 1f24 BE07      		cpc r27,r30
 7082 1f26 01F4      		brne .L377
 7083               	.LM919:
 7084 1f28 1092 0000 		sts (OSTCBTbl+173)+1,__zero_reg__
 7085 1f2c 1092 0000 		sts OSTCBTbl+173,__zero_reg__
 7086               	.LM920:
 7087 1f30 1092 0000 		sts (OSTCBList)+1,__zero_reg__
 7088 1f34 1092 0000 		sts OSTCBList,__zero_reg__
 7089               	.LM921:
 7090 1f38 80E0      		ldi r24,lo8(OSTCBTbl)
 7091 1f3a 90E0      		ldi r25,hi8(OSTCBTbl)
 7092 1f3c 9093 0000 		sts (OSTCBFreeList)+1,r25
 7093 1f40 8093 0000 		sts OSTCBFreeList,r24
 7094               	.LBE89:
 7095               	.LBE88:
 7096               	.LBB90:
 7097               	.LBB91:
 7098               	.LM922:
 7099 1f44 E0E0      		ldi r30,lo8(OSEventTbl)
 7100 1f46 F0E0      		ldi r31,hi8(OSEventTbl)
 7101 1f48 80EA      		ldi r24,lo8(-96)
 7102 1f4a DF01      		movw r26,r30
 7103               	.LVL435:
 7104 1f4c 1D92      		st X+,__zero_reg__
 7105 1f4e 8A95      	        dec r24
 7106 1f50 01F4      		brne .-6
 7107               	.L378:
 7108 1f52 CF01      		movw r24,r30
 7109               	.LVL436:
 7110 1f54 0896      		adiw r24,8
 7111               	.LVL437:
 7112               	.LM923:
 7113 1f56 1082      		st Z,__zero_reg__
 7114               	.LM924:
 7115 1f58 9583      		std Z+5,r25
 7116 1f5a 8483      		std Z+4,r24
 7117 1f5c FC01      		movw r30,r24
 7118               	.LM925:
 7119 1f5e B0E0      		ldi r27,hi8(OSEventTbl+152)
 7120 1f60 8030      		cpi r24,lo8(OSEventTbl+152)
 7121 1f62 9B07      		cpc r25,r27
 7122 1f64 01F4      		brne .L378
 7123               	.LM926:
 7124 1f66 1082      		st Z,__zero_reg__
 7125               	.LM927:
 7126 1f68 1582      		std Z+5,__zero_reg__
 7127 1f6a 1482      		std Z+4,__zero_reg__
 7128               	.LM928:
 7129 1f6c 80E0      		ldi r24,lo8(OSEventTbl)
 7130 1f6e 90E0      		ldi r25,hi8(OSEventTbl)
 7131               	.LVL438:
 7132 1f70 9093 0000 		sts (OSEventFreeList)+1,r25
 7133 1f74 8093 0000 		sts OSEventFreeList,r24
 7134               	.LBE91:
 7135               	.LBE90:
 7136               	.LM929:
 7137 1f78 0E94 0000 		call OS_FlagInit
 7138               	.LVL439:
 7139               	.LM930:
 7140 1f7c 0E94 0000 		call OS_QInit
 7141               	.LBB92:
 7142               	.LBB93:
 7143               	.LM931:
 7144 1f80 80E0      		ldi r24,lo8(gs(OS_TaskIdle))
 7145 1f82 90E0      		ldi r25,hi8(gs(OS_TaskIdle))
 7146 1f84 60E0      		ldi r22,lo8(0)
 7147 1f86 70E0      		ldi r23,hi8(0)
 7148 1f88 40E0      		ldi r20,lo8(OSTaskIdleStk+99)
 7149 1f8a 50E0      		ldi r21,hi8(OSTaskIdleStk+99)
 7150 1f8c 2FE0      		ldi r18,lo8(15)
 7151 1f8e 0E94 0000 		call OSTaskCreate
 7152               	.LBE93:
 7153               	.LBE92:
 7154               	.LM932:
 7155 1f92 0E94 0000 		call OSInitHookEnd
 7156               	/* epilogue start */
 7157               	.LM933:
 7158 1f96 DF91      		pop r29
 7159 1f98 CF91      		pop r28
 7160 1f9a 0895      		ret
 7161               	.LFE2:
 7163               	.global	OSMapTbl
 7164               		.data
 7167               	OSMapTbl:
 7168 0000 01        		.byte	1
 7169 0001 02        		.byte	2
 7170 0002 04        		.byte	4
 7171 0003 08        		.byte	8
 7172 0004 10        		.byte	16
 7173 0005 20        		.byte	32
 7174 0006 40        		.byte	64
 7175 0007 80        		.byte	-128
 7176               	.global	OSUnMapTbl
 7179               	OSUnMapTbl:
 7180 0008 00        		.byte	0
 7181 0009 00        		.byte	0
 7182 000a 01        		.byte	1
 7183 000b 00        		.byte	0
 7184 000c 02        		.byte	2
 7185 000d 00        		.byte	0
 7186 000e 01        		.byte	1
 7187 000f 00        		.byte	0
 7188 0010 03        		.byte	3
 7189 0011 00        		.byte	0
 7190 0012 01        		.byte	1
 7191 0013 00        		.byte	0
 7192 0014 02        		.byte	2
 7193 0015 00        		.byte	0
 7194 0016 01        		.byte	1
 7195 0017 00        		.byte	0
 7196 0018 04        		.byte	4
 7197 0019 00        		.byte	0
 7198 001a 01        		.byte	1
 7199 001b 00        		.byte	0
 7200 001c 02        		.byte	2
 7201 001d 00        		.byte	0
 7202 001e 01        		.byte	1
 7203 001f 00        		.byte	0
 7204 0020 03        		.byte	3
 7205 0021 00        		.byte	0
 7206 0022 01        		.byte	1
 7207 0023 00        		.byte	0
 7208 0024 02        		.byte	2
 7209 0025 00        		.byte	0
 7210 0026 01        		.byte	1
 7211 0027 00        		.byte	0
 7212 0028 05        		.byte	5
 7213 0029 00        		.byte	0
 7214 002a 01        		.byte	1
 7215 002b 00        		.byte	0
 7216 002c 02        		.byte	2
 7217 002d 00        		.byte	0
 7218 002e 01        		.byte	1
 7219 002f 00        		.byte	0
 7220 0030 03        		.byte	3
 7221 0031 00        		.byte	0
 7222 0032 01        		.byte	1
 7223 0033 00        		.byte	0
 7224 0034 02        		.byte	2
 7225 0035 00        		.byte	0
 7226 0036 01        		.byte	1
 7227 0037 00        		.byte	0
 7228 0038 04        		.byte	4
 7229 0039 00        		.byte	0
 7230 003a 01        		.byte	1
 7231 003b 00        		.byte	0
 7232 003c 02        		.byte	2
 7233 003d 00        		.byte	0
 7234 003e 01        		.byte	1
 7235 003f 00        		.byte	0
 7236 0040 03        		.byte	3
 7237 0041 00        		.byte	0
 7238 0042 01        		.byte	1
 7239 0043 00        		.byte	0
 7240 0044 02        		.byte	2
 7241 0045 00        		.byte	0
 7242 0046 01        		.byte	1
 7243 0047 00        		.byte	0
 7244 0048 06        		.byte	6
 7245 0049 00        		.byte	0
 7246 004a 01        		.byte	1
 7247 004b 00        		.byte	0
 7248 004c 02        		.byte	2
 7249 004d 00        		.byte	0
 7250 004e 01        		.byte	1
 7251 004f 00        		.byte	0
 7252 0050 03        		.byte	3
 7253 0051 00        		.byte	0
 7254 0052 01        		.byte	1
 7255 0053 00        		.byte	0
 7256 0054 02        		.byte	2
 7257 0055 00        		.byte	0
 7258 0056 01        		.byte	1
 7259 0057 00        		.byte	0
 7260 0058 04        		.byte	4
 7261 0059 00        		.byte	0
 7262 005a 01        		.byte	1
 7263 005b 00        		.byte	0
 7264 005c 02        		.byte	2
 7265 005d 00        		.byte	0
 7266 005e 01        		.byte	1
 7267 005f 00        		.byte	0
 7268 0060 03        		.byte	3
 7269 0061 00        		.byte	0
 7270 0062 01        		.byte	1
 7271 0063 00        		.byte	0
 7272 0064 02        		.byte	2
 7273 0065 00        		.byte	0
 7274 0066 01        		.byte	1
 7275 0067 00        		.byte	0
 7276 0068 05        		.byte	5
 7277 0069 00        		.byte	0
 7278 006a 01        		.byte	1
 7279 006b 00        		.byte	0
 7280 006c 02        		.byte	2
 7281 006d 00        		.byte	0
 7282 006e 01        		.byte	1
 7283 006f 00        		.byte	0
 7284 0070 03        		.byte	3
 7285 0071 00        		.byte	0
 7286 0072 01        		.byte	1
 7287 0073 00        		.byte	0
 7288 0074 02        		.byte	2
 7289 0075 00        		.byte	0
 7290 0076 01        		.byte	1
 7291 0077 00        		.byte	0
 7292 0078 04        		.byte	4
 7293 0079 00        		.byte	0
 7294 007a 01        		.byte	1
 7295 007b 00        		.byte	0
 7296 007c 02        		.byte	2
 7297 007d 00        		.byte	0
 7298 007e 01        		.byte	1
 7299 007f 00        		.byte	0
 7300 0080 03        		.byte	3
 7301 0081 00        		.byte	0
 7302 0082 01        		.byte	1
 7303 0083 00        		.byte	0
 7304 0084 02        		.byte	2
 7305 0085 00        		.byte	0
 7306 0086 01        		.byte	1
 7307 0087 00        		.byte	0
 7308 0088 07        		.byte	7
 7309 0089 00        		.byte	0
 7310 008a 01        		.byte	1
 7311 008b 00        		.byte	0
 7312 008c 02        		.byte	2
 7313 008d 00        		.byte	0
 7314 008e 01        		.byte	1
 7315 008f 00        		.byte	0
 7316 0090 03        		.byte	3
 7317 0091 00        		.byte	0
 7318 0092 01        		.byte	1
 7319 0093 00        		.byte	0
 7320 0094 02        		.byte	2
 7321 0095 00        		.byte	0
 7322 0096 01        		.byte	1
 7323 0097 00        		.byte	0
 7324 0098 04        		.byte	4
 7325 0099 00        		.byte	0
 7326 009a 01        		.byte	1
 7327 009b 00        		.byte	0
 7328 009c 02        		.byte	2
 7329 009d 00        		.byte	0
 7330 009e 01        		.byte	1
 7331 009f 00        		.byte	0
 7332 00a0 03        		.byte	3
 7333 00a1 00        		.byte	0
 7334 00a2 01        		.byte	1
 7335 00a3 00        		.byte	0
 7336 00a4 02        		.byte	2
 7337 00a5 00        		.byte	0
 7338 00a6 01        		.byte	1
 7339 00a7 00        		.byte	0
 7340 00a8 05        		.byte	5
 7341 00a9 00        		.byte	0
 7342 00aa 01        		.byte	1
 7343 00ab 00        		.byte	0
 7344 00ac 02        		.byte	2
 7345 00ad 00        		.byte	0
 7346 00ae 01        		.byte	1
 7347 00af 00        		.byte	0
 7348 00b0 03        		.byte	3
 7349 00b1 00        		.byte	0
 7350 00b2 01        		.byte	1
 7351 00b3 00        		.byte	0
 7352 00b4 02        		.byte	2
 7353 00b5 00        		.byte	0
 7354 00b6 01        		.byte	1
 7355 00b7 00        		.byte	0
 7356 00b8 04        		.byte	4
 7357 00b9 00        		.byte	0
 7358 00ba 01        		.byte	1
 7359 00bb 00        		.byte	0
 7360 00bc 02        		.byte	2
 7361 00bd 00        		.byte	0
 7362 00be 01        		.byte	1
 7363 00bf 00        		.byte	0
 7364 00c0 03        		.byte	3
 7365 00c1 00        		.byte	0
 7366 00c2 01        		.byte	1
 7367 00c3 00        		.byte	0
 7368 00c4 02        		.byte	2
 7369 00c5 00        		.byte	0
 7370 00c6 01        		.byte	1
 7371 00c7 00        		.byte	0
 7372 00c8 06        		.byte	6
 7373 00c9 00        		.byte	0
 7374 00ca 01        		.byte	1
 7375 00cb 00        		.byte	0
 7376 00cc 02        		.byte	2
 7377 00cd 00        		.byte	0
 7378 00ce 01        		.byte	1
 7379 00cf 00        		.byte	0
 7380 00d0 03        		.byte	3
 7381 00d1 00        		.byte	0
 7382 00d2 01        		.byte	1
 7383 00d3 00        		.byte	0
 7384 00d4 02        		.byte	2
 7385 00d5 00        		.byte	0
 7386 00d6 01        		.byte	1
 7387 00d7 00        		.byte	0
 7388 00d8 04        		.byte	4
 7389 00d9 00        		.byte	0
 7390 00da 01        		.byte	1
 7391 00db 00        		.byte	0
 7392 00dc 02        		.byte	2
 7393 00dd 00        		.byte	0
 7394 00de 01        		.byte	1
 7395 00df 00        		.byte	0
 7396 00e0 03        		.byte	3
 7397 00e1 00        		.byte	0
 7398 00e2 01        		.byte	1
 7399 00e3 00        		.byte	0
 7400 00e4 02        		.byte	2
 7401 00e5 00        		.byte	0
 7402 00e6 01        		.byte	1
 7403 00e7 00        		.byte	0
 7404 00e8 05        		.byte	5
 7405 00e9 00        		.byte	0
 7406 00ea 01        		.byte	1
 7407 00eb 00        		.byte	0
 7408 00ec 02        		.byte	2
 7409 00ed 00        		.byte	0
 7410 00ee 01        		.byte	1
 7411 00ef 00        		.byte	0
 7412 00f0 03        		.byte	3
 7413 00f1 00        		.byte	0
 7414 00f2 01        		.byte	1
 7415 00f3 00        		.byte	0
 7416 00f4 02        		.byte	2
 7417 00f5 00        		.byte	0
 7418 00f6 01        		.byte	1
 7419 00f7 00        		.byte	0
 7420 00f8 04        		.byte	4
 7421 00f9 00        		.byte	0
 7422 00fa 01        		.byte	1
 7423 00fb 00        		.byte	0
 7424 00fc 02        		.byte	2
 7425 00fd 00        		.byte	0
 7426 00fe 01        		.byte	1
 7427 00ff 00        		.byte	0
 7428 0100 03        		.byte	3
 7429 0101 00        		.byte	0
 7430 0102 01        		.byte	1
 7431 0103 00        		.byte	0
 7432 0104 02        		.byte	2
 7433 0105 00        		.byte	0
 7434 0106 01        		.byte	1
 7435 0107 00        		.byte	0
 7436               	.global	OSDebugEn
 7439               	OSDebugEn:
 7440 0108 0000      		.skip 2,0
 7441               		.comm OSCtxSwCtr,4,1
 7442               		.comm OSEventFreeList,2,1
 7443               		.comm OSEventTbl,160,1
 7444               		.comm OSFlagTbl,20,1
 7445               		.comm OSFlagFreeList,2,1
 7446               		.comm OSIntNesting,1,1
 7447               		.comm OSIntExitY,1,1
 7448               		.comm OSLockNesting,1,1
 7449               		.comm OSPrioCur,1,1
 7450               		.comm OSPrioHighRdy,1,1
 7451               		.comm OSRdyGrp,1,1
 7452               		.comm OSRdyTbl,2,1
 7453               		.comm OSRunning,1,1
 7454               		.comm OSTaskCtr,1,1
 7455               		.comm OSIdleCtr,4,1
 7456               		.comm OSTaskIdleStk,100,1
 7457               		.comm OSTCBCur,2,1
 7458               		.comm OSTCBFreeList,2,1
 7459               		.comm OSTCBHighRdy,2,1
 7460               		.comm OSTCBList,2,1
 7461               		.comm OSTCBPrioTbl,32,1
 7462               		.comm OSTCBTbl,190,1
 7463               		.comm OSQFreeList,2,1
 7464               		.comm OSQTbl,28,1
 7881               	.Letext0:
DEFINED SYMBOLS
                            *ABS*:00000000 ucos_ii.c
C:\DOCUME~1\Bruno\LOCALS~1\Temp/ccRfbWoW.s:2      *ABS*:0000003f __SREG__
C:\DOCUME~1\Bruno\LOCALS~1\Temp/ccRfbWoW.s:3      *ABS*:0000003e __SP_H__
C:\DOCUME~1\Bruno\LOCALS~1\Temp/ccRfbWoW.s:4      *ABS*:0000003d __SP_L__
C:\DOCUME~1\Bruno\LOCALS~1\Temp/ccRfbWoW.s:5      *ABS*:00000034 __CCP__
C:\DOCUME~1\Bruno\LOCALS~1\Temp/ccRfbWoW.s:6      *ABS*:00000000 __tmp_reg__
C:\DOCUME~1\Bruno\LOCALS~1\Temp/ccRfbWoW.s:7      *ABS*:00000001 __zero_reg__
C:\DOCUME~1\Bruno\LOCALS~1\Temp/ccRfbWoW.s:20     .text:00000000 OSIntEnter
                            *COM*:00000001 OSRunning
                            *COM*:00000001 OSIntNesting
C:\DOCUME~1\Bruno\LOCALS~1\Temp/ccRfbWoW.s:42     .text:00000018 OSVersion
C:\DOCUME~1\Bruno\LOCALS~1\Temp/ccRfbWoW.s:56     .text:0000001e OS_EventTaskRdy
C:\DOCUME~1\Bruno\LOCALS~1\Temp/ccRfbWoW.s:7179   .data:00000008 OSUnMapTbl
C:\DOCUME~1\Bruno\LOCALS~1\Temp/ccRfbWoW.s:7167   .data:00000000 OSMapTbl
                            *COM*:00000020 OSTCBPrioTbl
                            *COM*:00000001 OSRdyGrp
                            *COM*:00000002 OSRdyTbl
C:\DOCUME~1\Bruno\LOCALS~1\Temp/ccRfbWoW.s:194    .text:000000d4 OS_EventTaskWait
                            *COM*:00000002 OSTCBCur
C:\DOCUME~1\Bruno\LOCALS~1\Temp/ccRfbWoW.s:263    .text:0000013c OS_EventTO
C:\DOCUME~1\Bruno\LOCALS~1\Temp/ccRfbWoW.s:321    .text:0000018a OS_EventWaitListInit
C:\DOCUME~1\Bruno\LOCALS~1\Temp/ccRfbWoW.s:341    .text:00000194 OSFlagAccept
C:\DOCUME~1\Bruno\LOCALS~1\Temp/ccRfbWoW.s:588    .text:0000026a OSFlagCreate
                            *COM*:00000002 OSFlagFreeList
C:\DOCUME~1\Bruno\LOCALS~1\Temp/ccRfbWoW.s:687    .text:000002c2 OSFlagPendGetFlagsRdy
C:\DOCUME~1\Bruno\LOCALS~1\Temp/ccRfbWoW.s:730    .text:000002de OSFlagQuery
C:\DOCUME~1\Bruno\LOCALS~1\Temp/ccRfbWoW.s:790    .text:00000304 OS_FlagTaskRdy
C:\DOCUME~1\Bruno\LOCALS~1\Temp/ccRfbWoW.s:906    .text:00000392 OS_FlagUnlink
C:\DOCUME~1\Bruno\LOCALS~1\Temp/ccRfbWoW.s:968    .text:000003d2 OSMboxAccept
C:\DOCUME~1\Bruno\LOCALS~1\Temp/ccRfbWoW.s:1030   .text:000003fa OSMboxCreate
                            *COM*:00000002 OSEventFreeList
C:\DOCUME~1\Bruno\LOCALS~1\Temp/ccRfbWoW.s:1120   .text:0000044a OSMboxQuery
C:\DOCUME~1\Bruno\LOCALS~1\Temp/ccRfbWoW.s:1191   .text:0000048a OSMutexAccept
C:\DOCUME~1\Bruno\LOCALS~1\Temp/ccRfbWoW.s:1304   .text:000004fc OSMutexCreate
C:\DOCUME~1\Bruno\LOCALS~1\Temp/ccRfbWoW.s:1474   .text:000005ac OSMutexQuery
C:\DOCUME~1\Bruno\LOCALS~1\Temp/ccRfbWoW.s:1567   .text:0000060a OSQAccept
C:\DOCUME~1\Bruno\LOCALS~1\Temp/ccRfbWoW.s:1692   .text:00000690 OSQCreate
                            *COM*:00000002 OSQFreeList
C:\DOCUME~1\Bruno\LOCALS~1\Temp/ccRfbWoW.s:1880   .text:00000762 OSQFlush
C:\DOCUME~1\Bruno\LOCALS~1\Temp/ccRfbWoW.s:1939   .text:0000078c OSQQuery
C:\DOCUME~1\Bruno\LOCALS~1\Temp/ccRfbWoW.s:2052   .text:00000806 OSSemAccept
C:\DOCUME~1\Bruno\LOCALS~1\Temp/ccRfbWoW.s:2123   .text:0000083c OSSemCreate
C:\DOCUME~1\Bruno\LOCALS~1\Temp/ccRfbWoW.s:2213   .text:0000088c OSSemQuery
C:\DOCUME~1\Bruno\LOCALS~1\Temp/ccRfbWoW.s:2284   .text:000008cc OSTaskQuery
C:\DOCUME~1\Bruno\LOCALS~1\Temp/ccRfbWoW.s:2373   .text:00000916 OS_QInit
                            *COM*:0000001c OSQTbl
C:\DOCUME~1\Bruno\LOCALS~1\Temp/ccRfbWoW.s:2404   .text:00000942 OS_FlagInit
                            *COM*:00000014 OSFlagTbl
C:\DOCUME~1\Bruno\LOCALS~1\Temp/ccRfbWoW.s:2450   .text:00000976 OS_TCBInit
                            *COM*:00000002 OSTCBFreeList
                            *COM*:00000002 OSTCBList
C:\DOCUME~1\Bruno\LOCALS~1\Temp/ccRfbWoW.s:2649   .text:00000a58 OS_TaskIdle
                            *COM*:00000004 OSIdleCtr
C:\DOCUME~1\Bruno\LOCALS~1\Temp/ccRfbWoW.s:2703   .text:00000a92 OS_Sched
                            *COM*:00000001 OSLockNesting
                            *COM*:00000001 OSPrioHighRdy
                            *COM*:00000001 OSPrioCur
                            *COM*:00000002 OSTCBHighRdy
                            *COM*:00000004 OSCtxSwCtr
C:\DOCUME~1\Bruno\LOCALS~1\Temp/ccRfbWoW.s:2810   .text:00000b2a OSTimeDlyResume
C:\DOCUME~1\Bruno\LOCALS~1\Temp/ccRfbWoW.s:2962   .text:00000bbc OSTimeDly
C:\DOCUME~1\Bruno\LOCALS~1\Temp/ccRfbWoW.s:3043   .text:00000c16 OSTaskCreate
                            *COM*:00000001 OSTaskCtr
C:\DOCUME~1\Bruno\LOCALS~1\Temp/ccRfbWoW.s:3249   .text:00000cec OSSemPost
C:\DOCUME~1\Bruno\LOCALS~1\Temp/ccRfbWoW.s:3353   .text:00000d44 OSSemPend
C:\DOCUME~1\Bruno\LOCALS~1\Temp/ccRfbWoW.s:3621   .text:00000e7e OSQPostOpt
C:\DOCUME~1\Bruno\LOCALS~1\Temp/ccRfbWoW.s:3845   .text:00000f8a OSQPost
C:\DOCUME~1\Bruno\LOCALS~1\Temp/ccRfbWoW.s:3989   .text:00001026 OSQPend
C:\DOCUME~1\Bruno\LOCALS~1\Temp/ccRfbWoW.s:4309   .text:000011b0 OSMutexPost
C:\DOCUME~1\Bruno\LOCALS~1\Temp/ccRfbWoW.s:4569   .text:00001306 OSMutexPend
C:\DOCUME~1\Bruno\LOCALS~1\Temp/ccRfbWoW.s:5065   .text:000015a8 OSMboxPostOpt
C:\DOCUME~1\Bruno\LOCALS~1\Temp/ccRfbWoW.s:5200   .text:00001620 OSMboxPost
C:\DOCUME~1\Bruno\LOCALS~1\Temp/ccRfbWoW.s:5299   .text:00001670 OSMboxPend
C:\DOCUME~1\Bruno\LOCALS~1\Temp/ccRfbWoW.s:5591   .text:000017c6 OSFlagPost
C:\DOCUME~1\Bruno\LOCALS~1\Temp/ccRfbWoW.s:5869   .text:000018d8 OSFlagPend
C:\DOCUME~1\Bruno\LOCALS~1\Temp/ccRfbWoW.s:6713   .text:00001cfa OSTimeTick
C:\DOCUME~1\Bruno\LOCALS~1\Temp/ccRfbWoW.s:6828   .text:00001d8e OSStart
C:\DOCUME~1\Bruno\LOCALS~1\Temp/ccRfbWoW.s:6887   .text:00001de8 OSIntExit
                            *COM*:00000001 OSIntExitY
C:\DOCUME~1\Bruno\LOCALS~1\Temp/ccRfbWoW.s:7000   .text:00001e9c OSInit
                            *COM*:000000be OSTCBTbl
                            *COM*:000000a0 OSEventTbl
                            *COM*:00000064 OSTaskIdleStk
C:\DOCUME~1\Bruno\LOCALS~1\Temp/ccRfbWoW.s:7439   .data:00000108 OSDebugEn

UNDEFINED SYMBOLS
__do_copy_data
__do_clear_bss
OSTCBInitHook
OSTaskCreateHook
OSTaskIdleHook
OSCtxSw
OSTaskStkInit
OSTimeTickHook
OSStartHighRdy
OSIntCtxSw
OSInitHookBegin
OSInitHookEnd
